(dp0
S'sims'
p1
(lp2
(lp3
F100.0
aF84.0
aF90.0
aF91.0
aF89.0
aF79.0
aF89.0
aF29.0
aF86.0
aF90.0
aF90.0
aF30.0
aF88.0
aF44.0
aF44.0
aF88.0
aF25.0
aF31.0
aF51.0
aF47.0
aF89.0
aF37.0
aF87.0
aF44.0
aF91.0
aF42.0
aF32.0
aF87.0
aF23.0
aF47.0
aF90.0
aF32.0
aF39.0
aF34.0
aF41.0
aF39.0
aF87.0
aF40.0
aF79.0
aF68.0
aF87.0
aF87.0
aF63.0
aF42.0
aF54.0
aF90.0
aF87.0
aF27.0
aF21.0
aF42.0
aF81.0
aF43.0
aF90.0
aF88.0
aF37.0
aF46.0
aF90.0
aF86.0
aF43.0
aF90.0
aF91.0
aF89.0
aF34.0
aF85.0
aF92.0
aF39.0
aF85.0
aF90.0
aF93.0
aF55.0
aF92.0
aF87.0
aF89.0
aF32.0
aF86.0
aF43.0
aF85.0
aF90.0
aF44.0
aF44.0
aF81.0
aF35.0
aF69.0
aF49.0
aF57.0
aF91.0
aF39.0
aF92.0
aF43.0
aF88.0
aF87.0
aF91.0
aF85.0
aF34.0
aF86.0
aF90.0
aF35.0
aF90.0
aF40.0
aF89.0
aF42.0
aa(lp4
F84.0
aF100.0
aF86.0
aF86.0
aF86.0
aF76.0
aF84.0
aF28.0
aF84.0
aF85.0
aF86.0
aF31.0
aF83.0
aF40.0
aF40.0
aF85.0
aF22.0
aF32.0
aF47.0
aF42.0
aF83.0
aF35.0
aF81.0
aF39.0
aF85.0
aF39.0
aF30.0
aF83.0
aF22.0
aF44.0
aF85.0
aF29.0
aF38.0
aF32.0
aF38.0
aF37.0
aF83.0
aF38.0
aF77.0
aF65.0
aF83.0
aF81.0
aF60.0
aF38.0
aF50.0
aF86.0
aF81.0
aF28.0
aF20.0
aF40.0
aF78.0
aF41.0
aF86.0
aF83.0
aF35.0
aF47.0
aF86.0
aF81.0
aF40.0
aF84.0
aF86.0
aF84.0
aF31.0
aF82.0
aF87.0
aF37.0
aF80.0
aF85.0
aF89.0
aF48.0
aF87.0
aF84.0
aF82.0
aF30.0
aF82.0
aF37.0
aF81.0
aF86.0
aF37.0
aF41.0
aF76.0
aF35.0
aF66.0
aF46.0
aF52.0
aF81.0
aF38.0
aF87.0
aF40.0
aF83.0
aF82.0
aF87.0
aF80.0
aF32.0
aF81.0
aF86.0
aF33.0
aF86.0
aF37.0
aF85.0
aF36.0
aa(lp5
F90.0
aF86.0
aF100.0
aF90.0
aF94.0
aF82.0
aF92.0
aF33.0
aF88.0
aF88.0
aF92.0
aF31.0
aF90.0
aF47.0
aF44.0
aF90.0
aF28.0
aF34.0
aF52.0
aF48.0
aF87.0
aF40.0
aF86.0
aF44.0
aF90.0
aF43.0
aF34.0
aF89.0
aF27.0
aF49.0
aF90.0
aF34.0
aF41.0
aF36.0
aF41.0
aF41.0
aF89.0
aF43.0
aF80.0
aF71.0
aF90.0
aF88.0
aF66.0
aF42.0
aF54.0
aF92.0
aF89.0
aF28.0
aF24.0
aF45.0
aF83.0
aF47.0
aF92.0
aF91.0
aF39.0
aF47.0
aF92.0
aF85.0
aF46.0
aF90.0
aF91.0
aF87.0
aF36.0
aF85.0
aF90.0
aF40.0
aF84.0
aF92.0
aF93.0
aF53.0
aF92.0
aF89.0
aF89.0
aF33.0
aF89.0
aF44.0
aF87.0
aF90.0
aF44.0
aF46.0
aF81.0
aF38.0
aF71.0
aF51.0
aF58.0
aF87.0
aF42.0
aF92.0
aF45.0
aF90.0
aF89.0
aF92.0
aF83.0
aF36.0
aF87.0
aF91.0
aF39.0
aF90.0
aF40.0
aF92.0
aF43.0
aa(lp6
F91.0
aF86.0
aF90.0
aF100.0
aF90.0
aF81.0
aF91.0
aF31.0
aF87.0
aF91.0
aF91.0
aF33.0
aF91.0
aF47.0
aF45.0
aF90.0
aF24.0
aF35.0
aF54.0
aF49.0
aF89.0
aF39.0
aF88.0
aF44.0
aF92.0
aF45.0
aF34.0
aF91.0
aF25.0
aF50.0
aF91.0
aF34.0
aF43.0
aF37.0
aF43.0
aF43.0
aF90.0
aF44.0
aF81.0
aF72.0
aF89.0
aF87.0
aF67.0
aF44.0
aF56.0
aF91.0
aF87.0
aF28.0
aF23.0
aF46.0
aF84.0
aF47.0
aF91.0
aF90.0
aF40.0
aF49.0
aF90.0
aF87.0
aF46.0
aF90.0
aF92.0
aF90.0
aF35.0
aF88.0
aF92.0
aF41.0
aF87.0
aF92.0
aF92.0
aF55.0
aF94.0
aF90.0
aF88.0
aF34.0
aF88.0
aF45.0
aF88.0
aF92.0
aF48.0
aF46.0
aF83.0
aF40.0
aF72.0
aF52.0
aF57.0
aF88.0
aF42.0
aF94.0
aF46.0
aF90.0
aF85.0
aF94.0
aF85.0
aF37.0
aF86.0
aF92.0
aF38.0
aF91.0
aF41.0
aF89.0
aF43.0
aa(lp7
F89.0
aF86.0
aF94.0
aF90.0
aF100.0
aF81.0
aF91.0
aF33.0
aF86.0
aF89.0
aF90.0
aF32.0
aF90.0
aF46.0
aF43.0
aF90.0
aF27.0
aF33.0
aF51.0
aF47.0
aF90.0
aF38.0
aF86.0
aF42.0
aF89.0
aF42.0
aF32.0
aF89.0
aF27.0
aF47.0
aF89.0
aF32.0
aF40.0
aF34.0
aF40.0
aF40.0
aF89.0
aF42.0
aF81.0
aF70.0
aF88.0
aF88.0
aF65.0
aF42.0
aF53.0
aF91.0
aF88.0
aF28.0
aF23.0
aF45.0
aF81.0
aF45.0
aF91.0
aF89.0
aF38.0
aF49.0
aF89.0
aF84.0
aF44.0
aF91.0
aF89.0
aF88.0
aF33.0
aF84.0
aF91.0
aF39.0
aF84.0
aF93.0
aF94.0
aF51.0
aF93.0
aF89.0
aF89.0
aF31.0
aF87.0
aF43.0
aF86.0
aF91.0
aF49.0
aF45.0
aF79.0
aF37.0
aF70.0
aF49.0
aF57.0
aF88.0
aF41.0
aF93.0
aF43.0
aF88.0
aF89.0
aF93.0
aF82.0
aF35.0
aF85.0
aF91.0
aF36.0
aF89.0
aF39.0
aF89.0
aF41.0
aa(lp8
F79.0
aF76.0
aF82.0
aF81.0
aF81.0
aF100.0
aF82.0
aF41.0
aF77.0
aF77.0
aF80.0
aF43.0
aF86.0
aF51.0
aF51.0
aF80.0
aF34.0
aF42.0
aF57.0
aF57.0
aF78.0
aF48.0
aF83.0
aF50.0
aF80.0
aF53.0
aF42.0
aF85.0
aF34.0
aF55.0
aF80.0
aF43.0
aF49.0
aF42.0
aF49.0
aF50.0
aF84.0
aF52.0
aF80.0
aF73.0
aF84.0
aF81.0
aF68.0
aF50.0
aF57.0
aF80.0
aF83.0
aF33.0
aF34.0
aF52.0
aF77.0
aF54.0
aF82.0
aF84.0
aF47.0
aF47.0
aF81.0
aF79.0
aF52.0
aF78.0
aF82.0
aF81.0
aF45.0
aF77.0
aF82.0
aF48.0
aF80.0
aF82.0
aF81.0
aF58.0
aF81.0
aF80.0
aF81.0
aF42.0
aF78.0
aF51.0
aF81.0
aF79.0
aF44.0
aF53.0
aF81.0
aF47.0
aF71.0
aF57.0
aF61.0
aF75.0
aF51.0
aF83.0
aF53.0
aF85.0
aF83.0
aF81.0
aF78.0
aF45.0
aF80.0
aF81.0
aF44.0
aF78.0
aF49.0
aF83.0
aF51.0
aa(lp9
F89.0
aF84.0
aF92.0
aF91.0
aF91.0
aF82.0
aF100.0
aF34.0
aF87.0
aF89.0
aF92.0
aF34.0
aF91.0
aF47.0
aF44.0
aF91.0
aF27.0
aF35.0
aF54.0
aF48.0
aF87.0
aF40.0
aF89.0
aF45.0
aF91.0
aF45.0
aF33.0
aF89.0
aF26.0
aF50.0
aF90.0
aF34.0
aF44.0
aF36.0
aF42.0
aF43.0
aF90.0
aF45.0
aF82.0
aF74.0
aF90.0
aF88.0
aF67.0
aF44.0
aF55.0
aF92.0
aF91.0
aF29.0
aF23.0
aF46.0
aF85.0
aF49.0
aF93.0
aF92.0
aF41.0
aF50.0
aF90.0
aF86.0
aF46.0
aF90.0
aF92.0
aF89.0
aF36.0
aF87.0
aF91.0
aF42.0
aF87.0
aF91.0
aF92.0
aF54.0
aF93.0
aF90.0
aF88.0
aF34.0
aF89.0
aF44.0
aF89.0
aF90.0
aF49.0
aF47.0
aF82.0
aF41.0
aF73.0
aF52.0
aF60.0
aF85.0
aF43.0
aF92.0
aF45.0
aF90.0
aF88.0
aF94.0
aF84.0
aF38.0
aF88.0
aF91.0
aF39.0
aF90.0
aF42.0
aF91.0
aF42.0
aa(lp10
F29.0
aF28.0
aF33.0
aF31.0
aF33.0
aF41.0
aF34.0
aF100.0
aF31.0
aF31.0
aF33.0
aF71.0
aF33.0
aF73.0
aF69.0
aF30.0
aF73.0
aF74.0
aF67.0
aF67.0
aF31.0
aF79.0
aF34.0
aF73.0
aF30.0
aF74.0
aF75.0
aF34.0
aF76.0
aF71.0
aF32.0
aF85.0
aF76.0
aF74.0
aF75.0
aF77.0
aF34.0
aF76.0
aF45.0
aF52.0
aF36.0
aF33.0
aF55.0
aF75.0
aF64.0
aF29.0
aF36.0
aF39.0
aF74.0
aF73.0
aF37.0
aF74.0
aF33.0
aF35.0
aF78.0
aF43.0
aF31.0
aF35.0
aF65.0
aF31.0
aF31.0
aF32.0
aF75.0
aF31.0
aF31.0
aF76.0
aF35.0
aF30.0
aF32.0
aF64.0
aF32.0
aF32.0
aF34.0
aF72.0
aF31.0
aF68.0
aF33.0
aF31.0
aF48.0
aF74.0
aF42.0
aF73.0
aF52.0
aF69.0
aF59.0
aF29.0
aF77.0
aF31.0
aF75.0
aF35.0
aF35.0
aF32.0
aF35.0
aF79.0
aF37.0
aF31.0
aF76.0
aF34.0
aF76.0
aF33.0
aF69.0
aa(lp11
F86.0
aF84.0
aF88.0
aF87.0
aF86.0
aF77.0
aF87.0
aF31.0
aF100.0
aF88.0
aF88.0
aF31.0
aF86.0
aF43.0
aF42.0
aF87.0
aF23.0
aF31.0
aF48.0
aF43.0
aF86.0
aF35.0
aF83.0
aF41.0
aF88.0
aF40.0
aF30.0
aF86.0
aF23.0
aF46.0
aF89.0
aF31.0
aF38.0
aF34.0
aF39.0
aF37.0
aF86.0
aF39.0
aF77.0
aF67.0
aF86.0
aF85.0
aF63.0
aF40.0
aF50.0
aF90.0
aF86.0
aF30.0
aF21.0
aF40.0
aF80.0
aF43.0
aF89.0
aF86.0
aF37.0
aF45.0
aF90.0
aF83.0
aF42.0
aF87.0
aF88.0
aF86.0
aF35.0
aF83.0
aF89.0
aF37.0
aF81.0
aF87.0
aF90.0
aF50.0
aF90.0
aF85.0
aF85.0
aF30.0
aF85.0
aF40.0
aF84.0
aF88.0
aF44.0
aF44.0
aF77.0
aF36.0
aF69.0
aF47.0
aF52.0
aF83.0
aF38.0
aF89.0
aF42.0
aF86.0
aF85.0
aF89.0
aF81.0
aF32.0
aF84.0
aF89.0
aF37.0
aF88.0
aF38.0
aF88.0
aF40.0
aa(lp12
F90.0
aF85.0
aF88.0
aF91.0
aF89.0
aF77.0
aF89.0
aF31.0
aF88.0
aF100.0
aF90.0
aF31.0
aF87.0
aF43.0
aF43.0
aF90.0
aF24.0
aF32.0
aF51.0
aF46.0
aF89.0
aF38.0
aF87.0
aF42.0
aF92.0
aF43.0
aF33.0
aF88.0
aF24.0
aF49.0
aF91.0
aF33.0
aF41.0
aF36.0
aF40.0
aF41.0
aF87.0
aF42.0
aF80.0
aF70.0
aF89.0
aF86.0
aF63.0
aF42.0
aF54.0
aF90.0
aF87.0
aF29.0
aF21.0
aF42.0
aF85.0
aF46.0
aF92.0
aF90.0
aF38.0
aF46.0
aF89.0
aF86.0
aF44.0
aF90.0
aF91.0
aF88.0
aF34.0
aF87.0
aF94.0
aF40.0
aF84.0
aF90.0
aF93.0
aF53.0
aF92.0
aF89.0
aF89.0
aF32.0
aF87.0
aF43.0
aF85.0
aF94.0
aF48.0
aF44.0
aF79.0
aF38.0
aF70.0
aF49.0
aF54.0
aF86.0
aF42.0
aF92.0
aF43.0
aF88.0
aF86.0
aF92.0
aF84.0
aF36.0
aF87.0
aF91.0
aF36.0
aF91.0
aF40.0
aF89.0
aF42.0
aa(lp13
F90.0
aF86.0
aF92.0
aF91.0
aF90.0
aF80.0
aF92.0
aF33.0
aF88.0
aF90.0
aF100.0
aF34.0
aF91.0
aF46.0
aF45.0
aF89.0
aF26.0
aF34.0
aF54.0
aF49.0
aF89.0
aF39.0
aF88.0
aF45.0
aF92.0
aF44.0
aF33.0
aF88.0
aF27.0
aF50.0
aF91.0
aF34.0
aF43.0
aF36.0
aF43.0
aF43.0
aF88.0
aF43.0
aF80.0
aF72.0
aF90.0
aF87.0
aF66.0
aF44.0
aF56.0
aF92.0
aF90.0
aF30.0
aF23.0
aF46.0
aF86.0
aF48.0
aF94.0
aF92.0
aF41.0
aF47.0
aF92.0
aF88.0
aF46.0
aF90.0
aF93.0
aF91.0
aF35.0
aF87.0
aF92.0
aF42.0
aF86.0
aF91.0
aF94.0
aF55.0
aF92.0
aF89.0
aF89.0
aF33.0
aF89.0
aF46.0
aF87.0
aF90.0
aF48.0
aF46.0
aF82.0
aF39.0
aF73.0
aF52.0
aF58.0
aF86.0
aF42.0
aF94.0
aF46.0
aF90.0
aF88.0
aF91.0
aF86.0
aF37.0
aF90.0
aF92.0
aF39.0
aF91.0
aF42.0
aF91.0
aF44.0
aa(lp14
F30.0
aF31.0
aF31.0
aF33.0
aF32.0
aF43.0
aF34.0
aF71.0
aF31.0
aF31.0
aF34.0
aF100.0
aF36.0
aF70.0
aF72.0
aF31.0
aF69.0
aF75.0
aF67.0
aF69.0
aF31.0
aF75.0
aF36.0
aF73.0
aF31.0
aF71.0
aF76.0
aF36.0
aF71.0
aF70.0
aF33.0
aF76.0
aF70.0
aF76.0
aF73.0
aF77.0
aF34.0
aF71.0
aF43.0
aF54.0
aF34.0
aF33.0
aF56.0
aF77.0
aF67.0
aF30.0
aF34.0
aF40.0
aF72.0
aF73.0
aF37.0
aF71.0
aF33.0
aF34.0
aF77.0
aF46.0
aF31.0
aF38.0
aF69.0
aF30.0
aF32.0
aF34.0
aF77.0
aF31.0
aF31.0
aF75.0
aF39.0
aF31.0
aF32.0
aF67.0
aF32.0
aF32.0
aF34.0
aF69.0
aF32.0
aF69.0
aF33.0
aF31.0
aF51.0
aF74.0
aF44.0
aF70.0
aF54.0
aF68.0
aF60.0
aF31.0
aF74.0
aF32.0
aF72.0
aF37.0
aF35.0
aF32.0
aF36.0
aF78.0
aF35.0
aF30.0
aF70.0
aF34.0
aF75.0
aF33.0
aF69.0
aa(lp15
F88.0
aF83.0
aF90.0
aF91.0
aF90.0
aF86.0
aF91.0
aF33.0
aF86.0
aF87.0
aF91.0
aF36.0
aF100.0
aF49.0
aF48.0
aF89.0
aF27.0
aF36.0
aF56.0
aF52.0
aF87.0
aF41.0
aF89.0
aF48.0
aF90.0
aF47.0
aF36.0
aF92.0
aF26.0
aF52.0
aF89.0
aF36.0
aF44.0
aF38.0
aF45.0
aF45.0
aF91.0
aF46.0
aF83.0
aF74.0
aF90.0
aF88.0
aF69.0
aF46.0
aF57.0
aF90.0
aF89.0
aF31.0
aF26.0
aF48.0
aF82.0
aF49.0
aF91.0
aF91.0
aF42.0
aF48.0
aF90.0
aF84.0
aF49.0
aF88.0
aF92.0
aF90.0
aF37.0
aF85.0
aF91.0
aF44.0
aF87.0
aF91.0
aF92.0
aF57.0
aF91.0
aF89.0
aF88.0
aF36.0
aF88.0
aF48.0
aF88.0
aF88.0
aF46.0
aF49.0
aF86.0
aF41.0
aF74.0
aF53.0
aF59.0
aF84.0
aF44.0
aF94.0
aF48.0
aF92.0
aF90.0
aF90.0
aF84.0
aF39.0
aF87.0
aF90.0
aF40.0
aF89.0
aF44.0
aF90.0
aF46.0
aa(lp16
F44.0
aF40.0
aF47.0
aF47.0
aF46.0
aF51.0
aF47.0
aF73.0
aF43.0
aF43.0
aF46.0
aF70.0
aF49.0
aF100.0
aF76.0
aF44.0
aF65.0
aF74.0
aF76.0
aF73.0
aF42.0
aF81.0
aF49.0
aF80.0
aF44.0
aF78.0
aF74.0
aF47.0
aF68.0
aF78.0
aF44.0
aF78.0
aF81.0
aF74.0
aF81.0
aF80.0
aF47.0
aF81.0
aF58.0
aF68.0
aF50.0
aF47.0
aF69.0
aF80.0
aF74.0
aF44.0
aF47.0
aF41.0
aF67.0
aF77.0
aF49.0
aF81.0
aF48.0
aF49.0
aF81.0
aF51.0
aF46.0
aF50.0
aF72.0
aF45.0
aF46.0
aF47.0
aF74.0
aF43.0
aF44.0
aF78.0
aF52.0
aF45.0
aF45.0
aF73.0
aF47.0
aF46.0
aF47.0
aF72.0
aF46.0
aF75.0
aF47.0
aF45.0
aF40.0
aF77.0
aF56.0
aF78.0
aF68.0
aF78.0
aF68.0
aF42.0
aF82.0
aF45.0
aF78.0
aF50.0
aF48.0
aF46.0
aF51.0
aF80.0
aF50.0
aF44.0
aF77.0
aF48.0
aF79.0
aF46.0
aF73.0
aa(lp17
F44.0
aF40.0
aF44.0
aF45.0
aF43.0
aF51.0
aF44.0
aF69.0
aF42.0
aF43.0
aF45.0
aF72.0
aF48.0
aF76.0
aF100.0
aF43.0
aF63.0
aF71.0
aF80.0
aF84.0
aF42.0
aF81.0
aF48.0
aF82.0
aF44.0
aF79.0
aF77.0
aF48.0
aF63.0
aF84.0
aF43.0
aF77.0
aF78.0
aF78.0
aF80.0
aF84.0
aF47.0
aF75.0
aF54.0
aF66.0
aF47.0
aF47.0
aF66.0
aF82.0
aF86.0
aF42.0
aF46.0
aF44.0
aF64.0
aF79.0
aF48.0
aF82.0
aF46.0
aF46.0
aF79.0
aF47.0
aF45.0
aF51.0
aF80.0
aF43.0
aF46.0
aF46.0
aF75.0
aF41.0
aF45.0
aF81.0
aF50.0
aF42.0
aF43.0
aF85.0
aF45.0
aF44.0
aF48.0
aF67.0
aF45.0
aF81.0
aF46.0
aF43.0
aF40.0
aF83.0
aF58.0
aF70.0
aF66.0
aF80.0
aF72.0
aF40.0
aF80.0
aF44.0
aF81.0
aF49.0
aF49.0
aF44.0
aF48.0
aF75.0
aF48.0
aF43.0
aF75.0
aF48.0
aF81.0
aF45.0
aF79.0
aa(lp18
F88.0
aF85.0
aF90.0
aF90.0
aF90.0
aF80.0
aF91.0
aF30.0
aF87.0
aF90.0
aF89.0
aF31.0
aF89.0
aF44.0
aF43.0
aF100.0
aF23.0
aF32.0
aF51.0
aF46.0
aF88.0
aF38.0
aF87.0
aF42.0
aF91.0
aF42.0
aF31.0
aF88.0
aF23.0
aF47.0
aF89.0
aF32.0
aF41.0
aF35.0
aF39.0
aF41.0
aF90.0
aF41.0
aF81.0
aF71.0
aF88.0
aF87.0
aF65.0
aF42.0
aF52.0
aF91.0
aF87.0
aF30.0
aF21.0
aF43.0
aF83.0
aF45.0
aF91.0
aF90.0
aF38.0
aF45.0
aF90.0
aF84.0
aF47.0
aF89.0
aF89.0
aF87.0
aF33.0
aF85.0
aF92.0
aF39.0
aF83.0
aF92.0
aF92.0
aF52.0
aF93.0
aF90.0
aF87.0
aF31.0
aF87.0
aF43.0
aF86.0
aF90.0
aF51.0
aF44.0
aF80.0
aF38.0
aF71.0
aF50.0
aF55.0
aF85.0
aF41.0
aF92.0
aF42.0
aF89.0
aF86.0
aF93.0
aF83.0
aF35.0
aF86.0
aF90.0
aF36.0
aF89.0
aF39.0
aF88.0
aF40.0
aa(lp19
F25.0
aF22.0
aF28.0
aF24.0
aF27.0
aF34.0
aF27.0
aF73.0
aF23.0
aF24.0
aF26.0
aF69.0
aF27.0
aF65.0
aF63.0
aF23.0
aF100.0
aF74.0
aF58.0
aF60.0
aF25.0
aF72.0
aF28.0
aF66.0
aF23.0
aF67.0
aF75.0
aF25.0
aF83.0
aF63.0
aF26.0
aF80.0
aF69.0
aF73.0
aF65.0
aF71.0
aF26.0
aF71.0
aF35.0
aF44.0
aF28.0
aF27.0
aF48.0
aF69.0
aF55.0
aF23.0
aF29.0
aF32.0
aF81.0
aF70.0
aF26.0
aF65.0
aF26.0
aF28.0
aF71.0
aF43.0
aF25.0
aF26.0
aF59.0
aF24.0
aF24.0
aF26.0
aF71.0
aF22.0
aF24.0
aF70.0
aF27.0
aF26.0
aF25.0
aF57.0
aF23.0
aF25.0
aF29.0
aF69.0
aF24.0
aF64.0
aF26.0
aF23.0
aF38.0
aF66.0
aF34.0
aF69.0
aF45.0
aF60.0
aF54.0
aF27.0
aF71.0
aF25.0
aF67.0
aF28.0
aF30.0
aF23.0
aF30.0
aF76.0
aF29.0
aF24.0
aF68.0
aF26.0
aF71.0
aF28.0
aF65.0
aa(lp20
F31.0
aF32.0
aF34.0
aF35.0
aF33.0
aF42.0
aF35.0
aF74.0
aF31.0
aF32.0
aF34.0
aF75.0
aF36.0
aF74.0
aF71.0
aF32.0
aF74.0
aF100.0
aF70.0
aF68.0
aF32.0
aF79.0
aF37.0
aF76.0
aF34.0
aF78.0
aF79.0
aF35.0
aF74.0
aF74.0
aF35.0
aF83.0
aF77.0
aF77.0
aF76.0
aF78.0
aF35.0
aF78.0
aF45.0
aF58.0
aF38.0
aF34.0
aF59.0
aF74.0
aF67.0
aF31.0
aF37.0
aF40.0
aF74.0
aF77.0
aF38.0
aF76.0
aF36.0
aF37.0
aF77.0
aF43.0
aF33.0
aF38.0
aF67.0
aF33.0
aF34.0
aF33.0
aF76.0
aF33.0
aF33.0
aF76.0
aF39.0
aF32.0
aF32.0
aF68.0
aF33.0
aF36.0
aF37.0
aF73.0
aF34.0
aF73.0
aF35.0
aF33.0
aF41.0
aF75.0
aF43.0
aF73.0
aF56.0
aF68.0
aF63.0
aF31.0
aF82.0
aF33.0
aF73.0
aF38.0
aF37.0
aF34.0
aF38.0
aF81.0
aF38.0
aF32.0
aF75.0
aF36.0
aF76.0
aF36.0
aF72.0
aa(lp21
F51.0
aF47.0
aF52.0
aF54.0
aF51.0
aF57.0
aF54.0
aF67.0
aF48.0
aF51.0
aF54.0
aF67.0
aF56.0
aF76.0
aF80.0
aF51.0
aF58.0
aF70.0
aF100.0
aF79.0
aF50.0
aF78.0
aF57.0
aF79.0
aF52.0
aF84.0
aF72.0
aF55.0
aF60.0
aF85.0
aF52.0
aF74.0
aF81.0
aF74.0
aF78.0
aF83.0
aF55.0
aF78.0
aF60.0
aF72.0
aF55.0
aF53.0
aF70.0
aF77.0
aF82.0
aF49.0
aF54.0
aF45.0
aF59.0
aF83.0
aF56.0
aF83.0
aF55.0
aF57.0
aF74.0
aF49.0
aF52.0
aF57.0
aF77.0
aF51.0
aF53.0
aF53.0
aF71.0
aF50.0
aF52.0
aF79.0
aF57.0
aF52.0
aF51.0
aF83.0
aF53.0
aF53.0
aF54.0
aF67.0
aF53.0
aF79.0
aF54.0
aF50.0
aF48.0
aF79.0
aF65.0
aF73.0
aF72.0
aF80.0
aF72.0
aF47.0
aF80.0
aF53.0
aF80.0
aF57.0
aF53.0
aF52.0
aF56.0
aF74.0
aF56.0
aF52.0
aF74.0
aF55.0
aF79.0
aF53.0
aF74.0
aa(lp22
F47.0
aF42.0
aF48.0
aF49.0
aF47.0
aF57.0
aF48.0
aF67.0
aF43.0
aF46.0
aF49.0
aF69.0
aF52.0
aF73.0
aF84.0
aF46.0
aF60.0
aF68.0
aF79.0
aF100.0
aF46.0
aF77.0
aF52.0
aF79.0
aF48.0
aF79.0
aF72.0
aF50.0
aF62.0
aF83.0
aF48.0
aF73.0
aF77.0
aF72.0
aF78.0
aF81.0
aF51.0
aF72.0
aF55.0
aF69.0
aF51.0
aF51.0
aF65.0
aF79.0
aF83.0
aF46.0
aF49.0
aF42.0
aF61.0
aF75.0
aF51.0
aF79.0
aF50.0
aF52.0
aF74.0
aF48.0
aF49.0
aF53.0
aF77.0
aF45.0
aF50.0
aF49.0
aF76.0
aF46.0
aF48.0
aF77.0
aF54.0
aF47.0
aF47.0
aF82.0
aF47.0
aF48.0
aF51.0
aF66.0
aF48.0
aF81.0
aF49.0
aF48.0
aF46.0
aF82.0
aF61.0
aF66.0
aF67.0
aF79.0
aF71.0
aF43.0
aF75.0
aF48.0
aF80.0
aF53.0
aF51.0
aF48.0
aF51.0
aF73.0
aF53.0
aF48.0
aF72.0
aF51.0
aF77.0
aF49.0
aF77.0
aa(lp23
F89.0
aF83.0
aF87.0
aF89.0
aF90.0
aF78.0
aF87.0
aF31.0
aF86.0
aF89.0
aF89.0
aF31.0
aF87.0
aF42.0
aF42.0
aF88.0
aF25.0
aF32.0
aF50.0
aF46.0
aF100.0
aF35.0
aF86.0
aF41.0
aF89.0
aF42.0
aF32.0
aF87.0
aF24.0
aF47.0
aF90.0
aF31.0
aF40.0
aF34.0
aF41.0
aF38.0
aF87.0
aF40.0
aF79.0
aF68.0
aF86.0
aF85.0
aF60.0
aF40.0
aF51.0
aF89.0
aF86.0
aF28.0
aF22.0
aF41.0
aF82.0
aF44.0
aF91.0
aF89.0
aF36.0
aF45.0
aF87.0
aF85.0
aF41.0
aF90.0
aF88.0
aF86.0
aF32.0
aF85.0
aF91.0
aF38.0
aF81.0
aF90.0
aF91.0
aF51.0
aF89.0
aF88.0
aF86.0
aF30.0
aF86.0
aF41.0
aF85.0
aF91.0
aF46.0
aF42.0
aF79.0
aF35.0
aF67.0
aF47.0
aF52.0
aF86.0
aF38.0
aF92.0
aF41.0
aF86.0
aF86.0
aF89.0
aF81.0
aF34.0
aF85.0
aF91.0
aF35.0
aF89.0
aF38.0
aF87.0
aF41.0
aa(lp24
F37.0
aF35.0
aF40.0
aF39.0
aF38.0
aF48.0
aF40.0
aF79.0
aF35.0
aF38.0
aF39.0
aF75.0
aF41.0
aF81.0
aF81.0
aF38.0
aF72.0
aF79.0
aF78.0
aF77.0
aF35.0
aF100.0
aF44.0
aF83.0
aF38.0
aF85.0
aF84.0
aF41.0
aF76.0
aF83.0
aF38.0
aF87.0
aF86.0
aF84.0
aF85.0
aF89.0
aF42.0
aF84.0
aF50.0
aF63.0
aF43.0
aF40.0
aF64.0
aF81.0
aF77.0
aF35.0
aF42.0
aF45.0
aF74.0
aF84.0
aF44.0
aF83.0
aF42.0
aF43.0
aF85.0
aF46.0
aF39.0
aF44.0
aF79.0
aF37.0
aF40.0
aF40.0
aF81.0
aF38.0
aF38.0
aF84.0
aF45.0
aF37.0
aF37.0
aF76.0
aF39.0
aF38.0
aF42.0
aF77.0
aF38.0
aF79.0
aF40.0
aF38.0
aF46.0
aF82.0
aF50.0
aF81.0
aF62.0
aF82.0
aF68.0
aF35.0
aF87.0
aF38.0
aF86.0
aF44.0
aF42.0
aF38.0
aF44.0
aF85.0
aF45.0
aF38.0
aF83.0
aF42.0
aF85.0
aF40.0
aF79.0
aa(lp25
F87.0
aF81.0
aF86.0
aF88.0
aF86.0
aF83.0
aF89.0
aF34.0
aF83.0
aF87.0
aF88.0
aF36.0
aF89.0
aF49.0
aF48.0
aF87.0
aF28.0
aF37.0
aF57.0
aF52.0
aF86.0
aF44.0
aF100.0
aF49.0
aF89.0
aF48.0
aF36.0
aF88.0
aF28.0
aF53.0
aF86.0
aF37.0
aF46.0
aF39.0
aF46.0
aF46.0
aF90.0
aF46.0
aF83.0
aF74.0
aF90.0
aF87.0
aF66.0
aF46.0
aF57.0
aF86.0
aF87.0
aF30.0
aF25.0
aF47.0
aF84.0
aF50.0
aF91.0
aF91.0
aF42.0
aF47.0
aF87.0
aF87.0
aF48.0
aF86.0
aF89.0
aF88.0
aF39.0
aF84.0
aF89.0
aF44.0
aF85.0
aF88.0
aF88.0
aF59.0
aF89.0
aF86.0
aF88.0
aF37.0
aF85.0
aF48.0
aF87.0
aF87.0
aF49.0
aF49.0
aF82.0
aF41.0
aF73.0
aF54.0
aF59.0
aF83.0
aF44.0
aF89.0
aF47.0
aF91.0
aF88.0
aF89.0
aF84.0
aF39.0
aF89.0
aF87.0
aF42.0
aF88.0
aF44.0
aF86.0
aF47.0
aa(lp26
F44.0
aF39.0
aF44.0
aF44.0
aF42.0
aF50.0
aF45.0
aF73.0
aF41.0
aF42.0
aF45.0
aF73.0
aF48.0
aF80.0
aF82.0
aF42.0
aF66.0
aF76.0
aF79.0
aF79.0
aF41.0
aF83.0
aF49.0
aF100.0
aF43.0
aF83.0
aF80.0
aF46.0
aF66.0
aF83.0
aF43.0
aF80.0
aF80.0
aF81.0
aF91.0
aF83.0
aF47.0
aF79.0
aF55.0
aF66.0
aF48.0
aF45.0
aF69.0
aF83.0
aF80.0
aF42.0
aF47.0
aF42.0
aF65.0
aF82.0
aF49.0
aF85.0
aF46.0
aF48.0
aF82.0
aF47.0
aF44.0
aF50.0
aF77.0
aF42.0
aF44.0
aF46.0
aF79.0
aF42.0
aF43.0
aF83.0
aF50.0
aF42.0
aF43.0
aF82.0
aF44.0
aF45.0
aF46.0
aF75.0
aF45.0
aF81.0
aF46.0
aF43.0
aF40.0
aF87.0
aF55.0
aF74.0
aF66.0
aF81.0
aF71.0
aF41.0
aF83.0
aF44.0
aF84.0
aF49.0
aF47.0
aF43.0
aF48.0
aF78.0
aF49.0
aF43.0
aF81.0
aF48.0
aF83.0
aF45.0
aF79.0
aa(lp27
F91.0
aF85.0
aF90.0
aF92.0
aF89.0
aF80.0
aF91.0
aF30.0
aF88.0
aF92.0
aF92.0
aF31.0
aF90.0
aF44.0
aF44.0
aF91.0
aF23.0
aF34.0
aF52.0
aF48.0
aF89.0
aF38.0
aF89.0
aF43.0
aF100.0
aF43.0
aF32.0
aF88.0
aF24.0
aF49.0
aF91.0
aF32.0
aF41.0
aF35.0
aF41.0
aF42.0
aF89.0
aF42.0
aF80.0
aF70.0
aF90.0
aF87.0
aF64.0
aF42.0
aF55.0
aF91.0
aF88.0
aF28.0
aF20.0
aF43.0
aF85.0
aF46.0
aF94.0
aF91.0
aF38.0
aF47.0
aF91.0
aF87.0
aF46.0
aF91.0
aF93.0
aF89.0
aF34.0
aF88.0
aF94.0
aF40.0
aF85.0
aF91.0
aF93.0
aF54.0
aF92.0
aF91.0
aF89.0
aF32.0
aF89.0
aF47.0
aF87.0
aF92.0
aF48.0
aF44.0
aF81.0
aF37.0
aF71.0
aF51.0
aF56.0
aF86.0
aF41.0
aF93.0
aF43.0
aF90.0
aF88.0
aF92.0
aF84.0
aF35.0
aF89.0
aF93.0
aF36.0
aF93.0
aF40.0
aF90.0
aF42.0
aa(lp28
F42.0
aF39.0
aF43.0
aF45.0
aF42.0
aF53.0
aF45.0
aF74.0
aF40.0
aF43.0
aF44.0
aF71.0
aF47.0
aF78.0
aF79.0
aF42.0
aF67.0
aF78.0
aF84.0
aF79.0
aF42.0
aF85.0
aF48.0
aF83.0
aF43.0
aF100.0
aF80.0
aF46.0
aF69.0
aF85.0
aF44.0
aF83.0
aF86.0
aF81.0
aF84.0
aF86.0
aF46.0
aF86.0
aF54.0
aF66.0
aF49.0
aF46.0
aF68.0
aF80.0
aF79.0
aF41.0
aF47.0
aF44.0
aF69.0
aF85.0
aF48.0
aF87.0
aF47.0
aF49.0
aF81.0
aF46.0
aF44.0
aF47.0
aF79.0
aF43.0
aF45.0
aF45.0
aF78.0
aF42.0
aF44.0
aF84.0
aF48.0
aF43.0
aF43.0
aF80.0
aF44.0
aF45.0
aF46.0
aF75.0
aF44.0
aF80.0
aF45.0
aF42.0
aF43.0
aF82.0
aF56.0
aF79.0
aF65.0
aF81.0
aF70.0
aF39.0
aF86.0
aF44.0
aF85.0
aF49.0
aF46.0
aF43.0
aF47.0
aF82.0
aF50.0
aF43.0
aF81.0
aF47.0
aF84.0
aF45.0
aF80.0
aa(lp29
F32.0
aF30.0
aF34.0
aF34.0
aF32.0
aF42.0
aF33.0
aF75.0
aF30.0
aF33.0
aF33.0
aF76.0
aF36.0
aF74.0
aF77.0
aF31.0
aF75.0
aF79.0
aF72.0
aF72.0
aF32.0
aF84.0
aF36.0
aF80.0
aF32.0
aF80.0
aF100.0
aF36.0
aF77.0
aF79.0
aF33.0
aF83.0
aF78.0
aF94.0
aF81.0
aF83.0
aF34.0
aF78.0
aF45.0
aF54.0
aF37.0
aF34.0
aF58.0
aF80.0
aF71.0
aF30.0
aF36.0
aF37.0
aF75.0
aF80.0
aF37.0
aF78.0
aF35.0
aF36.0
aF80.0
aF44.0
aF32.0
aF37.0
aF71.0
aF31.0
aF33.0
aF34.0
aF79.0
aF32.0
aF33.0
aF82.0
aF38.0
aF31.0
aF33.0
aF72.0
aF32.0
aF32.0
aF36.0
aF76.0
aF33.0
aF77.0
aF33.0
aF33.0
aF48.0
aF77.0
aF45.0
aF75.0
aF55.0
aF73.0
aF60.0
aF31.0
aF82.0
aF32.0
aF80.0
aF37.0
aF37.0
aF32.0
aF37.0
aF81.0
aF38.0
aF33.0
aF77.0
aF37.0
aF83.0
aF35.0
aF74.0
aa(lp30
F87.0
aF83.0
aF89.0
aF91.0
aF89.0
aF85.0
aF89.0
aF34.0
aF86.0
aF88.0
aF88.0
aF36.0
aF92.0
aF47.0
aF48.0
aF88.0
aF25.0
aF35.0
aF55.0
aF50.0
aF87.0
aF41.0
aF88.0
aF46.0
aF88.0
aF46.0
aF36.0
aF100.0
aF26.0
aF52.0
aF87.0
aF35.0
aF44.0
aF38.0
aF45.0
aF44.0
aF92.0
aF45.0
aF83.0
aF71.0
aF89.0
aF87.0
aF67.0
aF46.0
aF57.0
aF87.0
aF87.0
aF29.0
aF25.0
aF47.0
aF82.0
aF49.0
aF89.0
aF89.0
aF41.0
aF48.0
aF87.0
aF86.0
aF49.0
aF86.0
aF90.0
aF88.0
aF38.0
aF85.0
aF91.0
aF43.0
aF86.0
aF90.0
aF89.0
aF57.0
aF90.0
aF88.0
aF87.0
aF34.0
aF86.0
aF47.0
aF86.0
aF88.0
aF46.0
aF48.0
aF84.0
aF41.0
aF72.0
aF53.0
aF57.0
aF83.0
aF43.0
aF90.0
aF48.0
aF91.0
aF87.0
aF90.0
aF81.0
aF38.0
aF85.0
aF88.0
aF38.0
aF88.0
aF43.0
aF88.0
aF46.0
aa(lp31
F23.0
aF22.0
aF27.0
aF25.0
aF27.0
aF34.0
aF26.0
aF76.0
aF23.0
aF24.0
aF27.0
aF71.0
aF26.0
aF68.0
aF63.0
aF23.0
aF83.0
aF74.0
aF60.0
aF62.0
aF24.0
aF76.0
aF28.0
aF66.0
aF24.0
aF69.0
aF77.0
aF26.0
aF100.0
aF65.0
aF26.0
aF82.0
aF71.0
aF74.0
aF69.0
aF73.0
aF26.0
aF73.0
aF35.0
aF45.0
aF28.0
aF27.0
aF49.0
aF71.0
aF57.0
aF23.0
aF28.0
aF37.0
aF88.0
aF71.0
aF28.0
aF67.0
aF27.0
aF28.0
aF74.0
aF42.0
aF24.0
aF27.0
aF59.0
aF23.0
aF24.0
aF26.0
aF72.0
aF22.0
aF23.0
aF70.0
aF29.0
aF25.0
aF25.0
aF56.0
aF23.0
aF24.0
aF28.0
aF73.0
aF23.0
aF65.0
aF26.0
aF24.0
aF46.0
aF66.0
aF35.0
aF70.0
aF45.0
aF63.0
aF53.0
aF25.0
aF72.0
aF24.0
aF69.0
aF28.0
aF29.0
aF24.0
aF29.0
aF79.0
aF29.0
aF24.0
aF69.0
aF26.0
aF71.0
aF27.0
aF66.0
aa(lp32
F47.0
aF44.0
aF49.0
aF50.0
aF47.0
aF55.0
aF50.0
aF71.0
aF46.0
aF49.0
aF50.0
aF70.0
aF52.0
aF78.0
aF84.0
aF47.0
aF63.0
aF74.0
aF85.0
aF83.0
aF47.0
aF83.0
aF53.0
aF83.0
aF49.0
aF85.0
aF79.0
aF52.0
aF65.0
aF100.0
aF48.0
aF80.0
aF82.0
aF80.0
aF82.0
aF87.0
aF51.0
aF80.0
aF59.0
aF69.0
aF53.0
aF51.0
aF67.0
aF81.0
aF84.0
aF46.0
aF52.0
aF45.0
aF64.0
aF83.0
aF53.0
aF85.0
aF52.0
aF53.0
aF79.0
aF46.0
aF49.0
aF54.0
aF79.0
aF46.0
aF51.0
aF51.0
aF76.0
aF47.0
aF49.0
aF82.0
aF54.0
aF48.0
aF49.0
aF85.0
aF48.0
aF48.0
aF53.0
aF70.0
aF49.0
aF83.0
aF50.0
aF49.0
aF44.0
aF84.0
aF61.0
aF74.0
aF68.0
aF83.0
aF72.0
aF44.0
aF81.0
aF49.0
aF86.0
aF54.0
aF52.0
aF48.0
aF53.0
aF77.0
aF54.0
aF49.0
aF77.0
aF53.0
aF83.0
aF50.0
aF80.0
aa(lp33
F90.0
aF85.0
aF90.0
aF91.0
aF89.0
aF80.0
aF90.0
aF32.0
aF89.0
aF91.0
aF91.0
aF33.0
aF89.0
aF44.0
aF43.0
aF89.0
aF26.0
aF35.0
aF52.0
aF48.0
aF90.0
aF38.0
aF86.0
aF43.0
aF91.0
aF44.0
aF33.0
aF87.0
aF26.0
aF48.0
aF100.0
aF34.0
aF42.0
aF35.0
aF40.0
aF41.0
aF87.0
aF43.0
aF80.0
aF70.0
aF90.0
aF87.0
aF63.0
aF41.0
aF54.0
aF90.0
aF89.0
aF30.0
aF23.0
aF44.0
aF85.0
aF46.0
aF93.0
aF91.0
aF38.0
aF45.0
aF90.0
aF85.0
aF43.0
aF91.0
aF91.0
aF88.0
aF37.0
aF87.0
aF92.0
aF40.0
aF83.0
aF90.0
aF92.0
aF53.0
aF91.0
aF90.0
aF89.0
aF33.0
aF89.0
aF45.0
aF86.0
aF91.0
aF46.0
aF46.0
aF79.0
aF37.0
aF70.0
aF50.0
aF57.0
aF86.0
aF42.0
aF93.0
aF44.0
aF89.0
aF87.0
aF91.0
aF83.0
aF36.0
aF87.0
aF92.0
aF38.0
aF91.0
aF41.0
aF94.0
aF43.0
aa(lp34
F32.0
aF29.0
aF34.0
aF34.0
aF32.0
aF43.0
aF34.0
aF85.0
aF31.0
aF33.0
aF34.0
aF76.0
aF36.0
aF78.0
aF77.0
aF32.0
aF80.0
aF83.0
aF74.0
aF73.0
aF31.0
aF87.0
aF37.0
aF80.0
aF32.0
aF83.0
aF83.0
aF35.0
aF82.0
aF80.0
aF34.0
aF100.0
aF83.0
aF82.0
aF82.0
aF84.0
aF36.0
aF85.0
aF46.0
aF57.0
aF38.0
aF35.0
aF59.0
aF82.0
aF71.0
aF30.0
aF37.0
aF41.0
aF82.0
aF80.0
aF39.0
aF81.0
aF36.0
aF38.0
aF86.0
aF47.0
aF33.0
aF37.0
aF73.0
aF32.0
aF33.0
aF34.0
aF82.0
aF32.0
aF33.0
aF83.0
aF38.0
aF32.0
aF33.0
aF71.0
aF33.0
aF33.0
aF36.0
aF78.0
aF34.0
aF76.0
aF36.0
aF33.0
aF49.0
aF80.0
aF45.0
aF79.0
aF55.0
aF75.0
aF62.0
aF30.0
aF86.0
aF32.0
aF80.0
aF37.0
aF37.0
aF33.0
aF38.0
aF90.0
aF39.0
aF32.0
aF79.0
aF36.0
aF84.0
aF36.0
aF78.0
aa(lp35
F39.0
aF38.0
aF41.0
aF43.0
aF40.0
aF49.0
aF44.0
aF76.0
aF38.0
aF41.0
aF43.0
aF70.0
aF44.0
aF81.0
aF78.0
aF41.0
aF69.0
aF77.0
aF81.0
aF77.0
aF40.0
aF86.0
aF46.0
aF80.0
aF41.0
aF86.0
aF78.0
aF44.0
aF71.0
aF82.0
aF42.0
aF83.0
aF100.0
aF79.0
aF81.0
aF89.0
aF44.0
aF86.0
aF51.0
aF66.0
aF47.0
aF43.0
aF65.0
aF82.0
aF77.0
aF39.0
aF44.0
aF44.0
aF70.0
aF82.0
aF49.0
aF83.0
aF46.0
aF48.0
aF81.0
aF49.0
aF42.0
aF46.0
aF76.0
aF41.0
aF43.0
aF42.0
aF77.0
aF40.0
aF41.0
aF82.0
aF48.0
aF41.0
aF41.0
aF75.0
aF43.0
aF43.0
aF43.0
aF76.0
aF42.0
aF77.0
aF44.0
aF41.0
aF49.0
aF80.0
aF53.0
aF84.0
aF64.0
aF83.0
aF72.0
aF37.0
aF84.0
aF41.0
aF82.0
aF46.0
aF44.0
aF42.0
aF48.0
aF84.0
aF47.0
aF41.0
aF83.0
aF45.0
aF82.0
aF43.0
aF74.0
aa(lp36
F34.0
aF32.0
aF36.0
aF37.0
aF34.0
aF42.0
aF36.0
aF74.0
aF34.0
aF36.0
aF36.0
aF76.0
aF38.0
aF74.0
aF78.0
aF35.0
aF73.0
aF77.0
aF74.0
aF72.0
aF34.0
aF84.0
aF39.0
aF81.0
aF35.0
aF81.0
aF94.0
aF38.0
aF74.0
aF80.0
aF35.0
aF82.0
aF79.0
aF100.0
aF82.0
aF84.0
aF37.0
aF79.0
aF48.0
aF57.0
aF40.0
aF37.0
aF61.0
aF81.0
aF73.0
aF33.0
aF39.0
aF40.0
aF73.0
aF82.0
aF40.0
aF80.0
aF38.0
aF39.0
aF81.0
aF46.0
aF36.0
aF40.0
aF73.0
aF34.0
aF36.0
aF37.0
aF79.0
aF34.0
aF36.0
aF83.0
aF41.0
aF33.0
aF36.0
aF74.0
aF35.0
aF34.0
aF39.0
aF75.0
aF36.0
aF77.0
aF36.0
aF35.0
aF48.0
aF79.0
aF48.0
aF76.0
aF58.0
aF75.0
aF63.0
aF34.0
aF84.0
aF35.0
aF81.0
aF40.0
aF39.0
aF34.0
aF40.0
aF81.0
aF40.0
aF35.0
aF76.0
aF39.0
aF84.0
aF37.0
aF74.0
aa(lp37
F41.0
aF38.0
aF41.0
aF43.0
aF40.0
aF49.0
aF42.0
aF75.0
aF39.0
aF40.0
aF43.0
aF73.0
aF45.0
aF81.0
aF80.0
aF39.0
aF65.0
aF76.0
aF78.0
aF78.0
aF41.0
aF85.0
aF46.0
aF91.0
aF41.0
aF84.0
aF81.0
aF45.0
aF69.0
aF82.0
aF40.0
aF82.0
aF81.0
aF82.0
aF100.0
aF83.0
aF45.0
aF81.0
aF53.0
aF64.0
aF46.0
aF43.0
aF65.0
aF83.0
aF77.0
aF39.0
aF44.0
aF44.0
aF68.0
aF80.0
aF46.0
aF84.0
aF43.0
aF45.0
aF83.0
aF46.0
aF42.0
aF47.0
aF77.0
aF41.0
aF43.0
aF43.0
aF78.0
aF39.0
aF42.0
aF83.0
aF48.0
aF40.0
aF42.0
aF77.0
aF41.0
aF42.0
aF44.0
aF74.0
aF42.0
aF79.0
aF44.0
aF41.0
aF46.0
aF83.0
aF54.0
aF75.0
aF63.0
aF79.0
aF67.0
aF38.0
aF84.0
aF42.0
aF83.0
aF46.0
aF45.0
aF41.0
aF46.0
aF81.0
aF46.0
aF41.0
aF83.0
aF45.0
aF83.0
aF42.0
aF78.0
aa(lp38
F39.0
aF37.0
aF41.0
aF43.0
aF40.0
aF50.0
aF43.0
aF77.0
aF37.0
aF41.0
aF43.0
aF77.0
aF45.0
aF80.0
aF84.0
aF41.0
aF71.0
aF78.0
aF83.0
aF81.0
aF38.0
aF89.0
aF46.0
aF83.0
aF42.0
aF86.0
aF83.0
aF44.0
aF73.0
aF87.0
aF41.0
aF84.0
aF89.0
aF84.0
aF83.0
aF100.0
aF44.0
aF84.0
aF51.0
aF67.0
aF46.0
aF43.0
aF67.0
aF85.0
aF82.0
aF39.0
aF44.0
aF43.0
aF71.0
aF85.0
aF47.0
aF85.0
aF45.0
aF46.0
aF84.0
aF49.0
aF42.0
aF46.0
aF80.0
aF40.0
aF42.0
aF43.0
aF80.0
aF39.0
aF42.0
aF89.0
aF47.0
aF40.0
aF40.0
aF82.0
aF42.0
aF41.0
aF45.0
aF77.0
aF42.0
aF83.0
aF42.0
aF40.0
aF46.0
aF85.0
aF53.0
aF80.0
aF65.0
aF84.0
aF71.0
aF37.0
aF86.0
aF41.0
aF86.0
aF46.0
aF45.0
aF41.0
aF47.0
aF83.0
aF47.0
aF41.0
aF82.0
aF45.0
aF89.0
aF43.0
aF78.0
aa(lp39
F87.0
aF83.0
aF89.0
aF90.0
aF89.0
aF84.0
aF90.0
aF34.0
aF86.0
aF87.0
aF88.0
aF34.0
aF91.0
aF47.0
aF47.0
aF90.0
aF26.0
aF35.0
aF55.0
aF51.0
aF87.0
aF42.0
aF90.0
aF47.0
aF89.0
aF46.0
aF34.0
aF92.0
aF26.0
aF51.0
aF87.0
aF36.0
aF44.0
aF37.0
aF45.0
aF44.0
aF100.0
aF46.0
aF84.0
aF73.0
aF89.0
aF88.0
aF69.0
aF46.0
aF55.0
aF88.0
aF88.0
aF30.0
aF25.0
aF47.0
aF82.0
aF49.0
aF91.0
aF91.0
aF42.0
aF47.0
aF88.0
aF85.0
aF48.0
aF87.0
aF89.0
aF87.0
aF38.0
aF85.0
aF90.0
aF43.0
aF86.0
aF91.0
aF90.0
aF56.0
aF91.0
aF88.0
aF86.0
aF36.0
aF87.0
aF46.0
aF89.0
aF88.0
aF46.0
aF48.0
aF83.0
aF40.0
aF74.0
aF54.0
aF59.0
aF83.0
aF44.0
aF90.0
aF47.0
aF91.0
aF88.0
aF91.0
aF83.0
aF38.0
aF87.0
aF89.0
aF39.0
aF89.0
aF43.0
aF87.0
aF46.0
aa(lp40
F40.0
aF38.0
aF43.0
aF44.0
aF42.0
aF52.0
aF45.0
aF76.0
aF39.0
aF42.0
aF43.0
aF71.0
aF46.0
aF81.0
aF75.0
aF41.0
aF71.0
aF78.0
aF78.0
aF72.0
aF40.0
aF84.0
aF46.0
aF79.0
aF42.0
aF86.0
aF78.0
aF45.0
aF73.0
aF80.0
aF43.0
aF85.0
aF86.0
aF79.0
aF81.0
aF84.0
aF46.0
aF100.0
aF55.0
aF66.0
aF48.0
aF45.0
aF69.0
aF81.0
aF74.0
aF40.0
aF46.0
aF43.0
aF71.0
aF83.0
aF47.0
aF85.0
aF46.0
aF48.0
aF83.0
aF47.0
aF42.0
aF46.0
aF74.0
aF41.0
aF43.0
aF44.0
aF76.0
aF41.0
aF42.0
aF83.0
aF48.0
aF43.0
aF43.0
aF74.0
aF43.0
aF42.0
aF45.0
aF74.0
aF43.0
aF76.0
aF45.0
aF41.0
aF37.0
aF80.0
aF53.0
aF82.0
aF65.0
aF81.0
aF68.0
aF39.0
aF85.0
aF43.0
aF82.0
aF48.0
aF46.0
aF43.0
aF47.0
aF85.0
aF48.0
aF42.0
aF77.0
aF46.0
aF84.0
aF45.0
aF76.0
aa(lp41
F79.0
aF77.0
aF80.0
aF81.0
aF81.0
aF80.0
aF82.0
aF45.0
aF77.0
aF80.0
aF80.0
aF43.0
aF83.0
aF58.0
aF54.0
aF81.0
aF35.0
aF45.0
aF60.0
aF55.0
aF79.0
aF50.0
aF83.0
aF55.0
aF80.0
aF54.0
aF45.0
aF83.0
aF35.0
aF59.0
aF80.0
aF46.0
aF51.0
aF48.0
aF53.0
aF51.0
aF84.0
aF55.0
aF100.0
aF74.0
aF83.0
aF80.0
aF71.0
aF56.0
aF61.0
aF80.0
aF81.0
aF31.0
aF35.0
aF54.0
aF78.0
aF58.0
aF82.0
aF82.0
aF52.0
aF50.0
aF78.0
aF79.0
aF55.0
aF78.0
aF80.0
aF78.0
aF46.0
aF77.0
aF81.0
aF52.0
aF79.0
aF81.0
aF83.0
aF61.0
aF82.0
aF81.0
aF81.0
aF44.0
aF79.0
aF53.0
aF80.0
aF81.0
aF46.0
aF56.0
aF82.0
aF49.0
aF74.0
aF58.0
aF64.0
aF76.0
aF54.0
aF81.0
aF54.0
aF83.0
aF83.0
aF82.0
aF78.0
aF48.0
aF80.0
aF80.0
aF48.0
aF80.0
aF53.0
aF80.0
aF52.0
aa(lp42
F68.0
aF65.0
aF71.0
aF72.0
aF70.0
aF73.0
aF74.0
aF52.0
aF67.0
aF70.0
aF72.0
aF54.0
aF74.0
aF68.0
aF66.0
aF71.0
aF44.0
aF58.0
aF72.0
aF69.0
aF68.0
aF63.0
aF74.0
aF66.0
aF70.0
aF66.0
aF54.0
aF71.0
aF45.0
aF69.0
aF70.0
aF57.0
aF66.0
aF57.0
aF64.0
aF67.0
aF73.0
aF66.0
aF74.0
aF100.0
aF75.0
aF71.0
aF81.0
aF65.0
aF75.0
aF69.0
aF72.0
aF39.0
aF42.0
aF67.0
aF74.0
aF70.0
aF75.0
aF75.0
aF63.0
aF48.0
aF71.0
aF73.0
aF67.0
aF69.0
aF71.0
aF71.0
aF58.0
aF67.0
aF70.0
aF63.0
aF75.0
aF71.0
aF70.0
aF74.0
aF72.0
aF71.0
aF71.0
aF54.0
aF72.0
aF63.0
aF71.0
aF69.0
aF46.0
aF68.0
aF76.0
aF60.0
aF87.0
aF72.0
aF74.0
aF64.0
aF66.0
aF71.0
aF66.0
aF74.0
aF71.0
aF72.0
aF72.0
aF58.0
aF74.0
aF70.0
aF61.0
aF73.0
aF63.0
aF70.0
aF61.0
aa(lp43
F87.0
aF83.0
aF90.0
aF89.0
aF88.0
aF84.0
aF90.0
aF36.0
aF86.0
aF89.0
aF90.0
aF34.0
aF90.0
aF50.0
aF47.0
aF88.0
aF28.0
aF38.0
aF55.0
aF51.0
aF86.0
aF43.0
aF90.0
aF48.0
aF90.0
aF49.0
aF37.0
aF89.0
aF28.0
aF53.0
aF90.0
aF38.0
aF47.0
aF40.0
aF46.0
aF46.0
aF89.0
aF48.0
aF83.0
aF75.0
aF100.0
aF88.0
aF68.0
aF46.0
aF58.0
aF88.0
aF94.0
aF32.0
aF25.0
aF48.0
aF86.0
aF51.0
aF93.0
aF93.0
aF42.0
aF48.0
aF89.0
aF86.0
aF48.0
aF88.0
aF91.0
aF88.0
aF38.0
aF87.0
aF91.0
aF45.0
aF84.0
aF90.0
aF90.0
aF58.0
aF90.0
aF89.0
aF88.0
aF37.0
aF89.0
aF48.0
aF88.0
aF89.0
aF49.0
aF49.0
aF83.0
aF42.0
aF74.0
aF56.0
aF59.0
aF83.0
aF46.0
aF91.0
aF48.0
aF92.0
aF89.0
aF91.0
aF84.0
aF40.0
aF90.0
aF90.0
aF41.0
aF89.0
aF45.0
aF89.0
aF47.0
aa(lp44
F87.0
aF81.0
aF88.0
aF87.0
aF88.0
aF81.0
aF88.0
aF33.0
aF85.0
aF86.0
aF87.0
aF33.0
aF88.0
aF47.0
aF47.0
aF87.0
aF27.0
aF34.0
aF53.0
aF51.0
aF85.0
aF40.0
aF87.0
aF45.0
aF87.0
aF46.0
aF34.0
aF87.0
aF27.0
aF51.0
aF87.0
aF35.0
aF43.0
aF37.0
aF43.0
aF43.0
aF88.0
aF45.0
aF80.0
aF71.0
aF88.0
aF100.0
aF66.0
aF45.0
aF56.0
aF89.0
aF87.0
aF30.0
aF24.0
aF45.0
aF81.0
aF48.0
aF88.0
aF87.0
aF41.0
aF46.0
aF88.0
aF86.0
aF46.0
aF86.0
aF88.0
aF86.0
aF37.0
aF83.0
aF89.0
aF42.0
aF83.0
aF88.0
aF88.0
aF55.0
aF88.0
aF85.0
aF88.0
aF34.0
aF84.0
aF47.0
aF85.0
aF86.0
aF48.0
aF46.0
aF83.0
aF39.0
aF70.0
aF53.0
aF61.0
aF83.0
aF43.0
aF88.0
aF46.0
aF89.0
aF89.0
aF89.0
aF80.0
aF37.0
aF85.0
aF86.0
aF38.0
aF86.0
aF43.0
aF88.0
aF44.0
aa(lp45
F63.0
aF60.0
aF66.0
aF67.0
aF65.0
aF68.0
aF67.0
aF55.0
aF63.0
aF63.0
aF66.0
aF56.0
aF69.0
aF69.0
aF66.0
aF65.0
aF48.0
aF59.0
aF70.0
aF65.0
aF60.0
aF64.0
aF66.0
aF69.0
aF64.0
aF68.0
aF58.0
aF67.0
aF49.0
aF67.0
aF63.0
aF59.0
aF65.0
aF61.0
aF65.0
aF67.0
aF69.0
aF69.0
aF71.0
aF81.0
aF68.0
aF66.0
aF100.0
aF67.0
aF71.0
aF65.0
aF68.0
aF37.0
aF47.0
aF69.0
aF65.0
aF71.0
aF66.0
aF66.0
aF66.0
aF47.0
aF66.0
aF64.0
aF67.0
aF63.0
aF65.0
aF64.0
aF58.0
aF62.0
aF65.0
aF67.0
aF68.0
aF66.0
aF66.0
aF72.0
aF68.0
aF65.0
aF64.0
aF56.0
aF65.0
aF65.0
aF66.0
aF63.0
aF48.0
aF69.0
aF72.0
aF64.0
aF87.0
aF72.0
aF72.0
aF61.0
aF69.0
aF66.0
aF67.0
aF69.0
aF68.0
aF67.0
aF64.0
aF61.0
aF66.0
aF65.0
aF60.0
aF68.0
aF67.0
aF64.0
aF64.0
aa(lp46
F42.0
aF38.0
aF42.0
aF44.0
aF42.0
aF50.0
aF44.0
aF75.0
aF40.0
aF42.0
aF44.0
aF77.0
aF46.0
aF80.0
aF82.0
aF42.0
aF69.0
aF74.0
aF77.0
aF79.0
aF40.0
aF81.0
aF46.0
aF83.0
aF42.0
aF80.0
aF80.0
aF46.0
aF71.0
aF81.0
aF41.0
aF82.0
aF82.0
aF81.0
aF83.0
aF85.0
aF46.0
aF81.0
aF56.0
aF65.0
aF46.0
aF45.0
aF67.0
aF100.0
aF79.0
aF40.0
aF44.0
aF41.0
aF70.0
aF82.0
aF46.0
aF82.0
aF45.0
aF47.0
aF88.0
aF47.0
aF42.0
aF47.0
aF76.0
aF40.0
aF43.0
aF44.0
aF82.0
aF38.0
aF43.0
aF84.0
aF49.0
aF42.0
aF43.0
aF79.0
aF43.0
aF43.0
aF45.0
aF72.0
aF43.0
aF79.0
aF45.0
aF42.0
aF48.0
aF83.0
aF55.0
aF76.0
aF66.0
aF79.0
aF68.0
aF40.0
aF81.0
aF43.0
aF84.0
aF48.0
aF46.0
aF43.0
aF47.0
aF80.0
aF46.0
aF41.0
aF79.0
aF46.0
aF84.0
aF43.0
aF77.0
aa(lp47
F54.0
aF50.0
aF54.0
aF56.0
aF53.0
aF57.0
aF55.0
aF64.0
aF50.0
aF54.0
aF56.0
aF67.0
aF57.0
aF74.0
aF86.0
aF52.0
aF55.0
aF67.0
aF82.0
aF83.0
aF51.0
aF77.0
aF57.0
aF80.0
aF55.0
aF79.0
aF71.0
aF57.0
aF57.0
aF84.0
aF54.0
aF71.0
aF77.0
aF73.0
aF77.0
aF82.0
aF55.0
aF74.0
aF61.0
aF75.0
aF58.0
aF56.0
aF71.0
aF79.0
aF100.0
aF52.0
aF54.0
aF43.0
aF54.0
aF80.0
aF59.0
aF81.0
aF57.0
aF56.0
aF75.0
aF43.0
aF54.0
aF60.0
aF79.0
aF52.0
aF56.0
aF57.0
aF71.0
aF52.0
aF55.0
aF77.0
aF62.0
aF53.0
aF54.0
aF89.0
aF55.0
aF54.0
aF58.0
aF65.0
aF54.0
aF81.0
aF54.0
aF54.0
aF46.0
aF83.0
aF66.0
aF69.0
aF75.0
aF83.0
aF75.0
aF49.0
aF77.0
aF55.0
aF79.0
aF58.0
aF56.0
aF55.0
aF57.0
aF70.0
aF57.0
aF54.0
aF73.0
aF59.0
aF77.0
aF54.0
aF77.0
aa(lp48
F90.0
aF86.0
aF92.0
aF91.0
aF91.0
aF80.0
aF92.0
aF29.0
aF90.0
aF90.0
aF92.0
aF30.0
aF90.0
aF44.0
aF42.0
aF91.0
aF23.0
aF31.0
aF49.0
aF46.0
aF89.0
aF35.0
aF86.0
aF42.0
aF91.0
aF41.0
aF30.0
aF87.0
aF23.0
aF46.0
aF90.0
aF30.0
aF39.0
aF33.0
aF39.0
aF39.0
aF88.0
aF40.0
aF80.0
aF69.0
aF88.0
aF89.0
aF65.0
aF40.0
aF52.0
aF100.0
aF88.0
aF26.0
aF20.0
aF43.0
aF83.0
aF43.0
aF92.0
aF89.0
aF37.0
aF48.0
aF91.0
aF85.0
aF43.0
aF90.0
aF92.0
aF87.0
aF34.0
aF86.0
aF92.0
aF38.0
aF85.0
aF92.0
aF93.0
aF51.0
aF92.0
aF89.0
aF88.0
aF30.0
aF89.0
aF42.0
aF87.0
aF91.0
aF40.0
aF43.0
aF80.0
aF36.0
aF70.0
aF48.0
aF56.0
aF87.0
aF39.0
aF93.0
aF42.0
aF88.0
aF88.0
aF92.0
aF83.0
aF33.0
aF86.0
aF92.0
aF36.0
aF90.0
aF38.0
aF90.0
aF41.0
aa(lp49
F87.0
aF81.0
aF89.0
aF87.0
aF88.0
aF83.0
aF91.0
aF36.0
aF86.0
aF87.0
aF90.0
aF34.0
aF89.0
aF47.0
aF46.0
aF87.0
aF29.0
aF37.0
aF54.0
aF49.0
aF86.0
aF42.0
aF87.0
aF47.0
aF88.0
aF47.0
aF36.0
aF87.0
aF28.0
aF52.0
aF89.0
aF37.0
aF44.0
aF39.0
aF44.0
aF44.0
aF88.0
aF46.0
aF81.0
aF72.0
aF94.0
aF87.0
aF68.0
aF44.0
aF54.0
aF88.0
aF100.0
aF32.0
aF25.0
aF46.0
aF82.0
aF50.0
aF90.0
aF91.0
aF41.0
aF48.0
aF88.0
aF83.0
aF47.0
aF86.0
aF89.0
aF87.0
aF36.0
aF85.0
aF89.0
aF44.0
aF83.0
aF88.0
aF89.0
aF55.0
aF88.0
aF87.0
aF88.0
aF37.0
aF86.0
aF46.0
aF86.0
aF86.0
aF48.0
aF47.0
aF81.0
aF41.0
aF70.0
aF54.0
aF58.0
aF83.0
aF45.0
aF90.0
aF47.0
aF90.0
aF87.0
aF88.0
aF82.0
aF38.0
aF88.0
aF89.0
aF40.0
aF86.0
aF44.0
aF90.0
aF46.0
aa(lp50
F27.0
aF28.0
aF28.0
aF28.0
aF28.0
aF33.0
aF29.0
aF39.0
aF30.0
aF29.0
aF30.0
aF40.0
aF31.0
aF41.0
aF44.0
aF30.0
aF32.0
aF40.0
aF45.0
aF42.0
aF28.0
aF45.0
aF30.0
aF42.0
aF28.0
aF44.0
aF37.0
aF29.0
aF37.0
aF45.0
aF30.0
aF41.0
aF44.0
aF40.0
aF44.0
aF43.0
aF30.0
aF43.0
aF31.0
aF39.0
aF32.0
aF30.0
aF37.0
aF41.0
aF43.0
aF26.0
aF32.0
aF100.0
aF38.0
aF42.0
aF29.0
aF44.0
aF30.0
aF31.0
aF41.0
aF30.0
aF29.0
aF31.0
aF43.0
aF30.0
aF30.0
aF30.0
aF41.0
aF29.0
aF28.0
aF41.0
aF29.0
aF28.0
aF29.0
aF43.0
aF29.0
aF30.0
aF30.0
aF47.0
aF28.0
aF41.0
aF29.0
aF30.0
aF43.0
aF43.0
aF33.0
aF41.0
aF38.0
aF45.0
aF42.0
aF27.0
aF43.0
aF29.0
aF48.0
aF32.0
aF29.0
aF29.0
aF30.0
aF42.0
aF31.0
aF28.0
aF43.0
aF30.0
aF41.0
aF29.0
aF44.0
aa(lp51
F21.0
aF20.0
aF24.0
aF23.0
aF23.0
aF34.0
aF23.0
aF74.0
aF21.0
aF21.0
aF23.0
aF72.0
aF26.0
aF67.0
aF64.0
aF21.0
aF81.0
aF74.0
aF59.0
aF61.0
aF22.0
aF74.0
aF25.0
aF65.0
aF20.0
aF69.0
aF75.0
aF25.0
aF88.0
aF64.0
aF23.0
aF82.0
aF70.0
aF73.0
aF68.0
aF71.0
aF25.0
aF71.0
aF35.0
aF42.0
aF25.0
aF24.0
aF47.0
aF70.0
aF54.0
aF20.0
aF25.0
aF38.0
aF100.0
aF69.0
aF27.0
aF66.0
aF23.0
aF25.0
aF72.0
aF43.0
aF22.0
aF26.0
aF61.0
aF21.0
aF21.0
aF23.0
aF71.0
aF22.0
aF21.0
aF69.0
aF27.0
aF21.0
aF23.0
aF55.0
aF22.0
aF23.0
aF24.0
aF70.0
aF22.0
aF63.0
aF24.0
aF21.0
aF48.0
aF65.0
aF34.0
aF69.0
aF42.0
aF60.0
aF52.0
aF20.0
aF71.0
aF22.0
aF67.0
aF26.0
aF25.0
aF22.0
aF27.0
aF77.0
aF26.0
aF21.0
aF69.0
aF23.0
aF69.0
aF25.0
aF66.0
aa(lp52
F42.0
aF40.0
aF45.0
aF46.0
aF45.0
aF52.0
aF46.0
aF73.0
aF40.0
aF42.0
aF46.0
aF73.0
aF48.0
aF77.0
aF79.0
aF43.0
aF70.0
aF77.0
aF83.0
aF75.0
aF41.0
aF84.0
aF47.0
aF82.0
aF43.0
aF85.0
aF80.0
aF47.0
aF71.0
aF83.0
aF44.0
aF80.0
aF82.0
aF82.0
aF80.0
aF85.0
aF47.0
aF83.0
aF54.0
aF67.0
aF48.0
aF45.0
aF69.0
aF82.0
aF80.0
aF43.0
aF46.0
aF42.0
aF69.0
aF100.0
aF48.0
aF84.0
aF46.0
aF48.0
aF82.0
aF48.0
aF43.0
aF47.0
aF77.0
aF43.0
aF44.0
aF45.0
aF76.0
aF41.0
aF43.0
aF84.0
aF49.0
aF45.0
aF44.0
aF81.0
aF45.0
aF44.0
aF45.0
aF73.0
aF44.0
aF83.0
aF47.0
aF42.0
aF48.0
aF84.0
aF57.0
aF77.0
aF68.0
aF78.0
aF68.0
aF40.0
aF85.0
aF45.0
aF85.0
aF49.0
aF46.0
aF45.0
aF47.0
aF80.0
aF47.0
aF43.0
aF79.0
aF47.0
aF84.0
aF44.0
aF80.0
aa(lp53
F81.0
aF78.0
aF83.0
aF84.0
aF81.0
aF77.0
aF85.0
aF37.0
aF80.0
aF85.0
aF86.0
aF37.0
aF82.0
aF49.0
aF48.0
aF83.0
aF26.0
aF38.0
aF56.0
aF51.0
aF82.0
aF44.0
aF84.0
aF49.0
aF85.0
aF48.0
aF37.0
aF82.0
aF28.0
aF53.0
aF85.0
aF39.0
aF49.0
aF40.0
aF46.0
aF47.0
aF82.0
aF47.0
aF78.0
aF74.0
aF86.0
aF81.0
aF65.0
aF46.0
aF59.0
aF83.0
aF82.0
aF29.0
aF27.0
aF48.0
aF100.0
aF50.0
aF88.0
aF88.0
aF43.0
aF46.0
aF84.0
aF83.0
aF50.0
aF83.0
aF85.0
aF83.0
aF40.0
aF83.0
aF85.0
aF45.0
aF81.0
aF83.0
aF85.0
aF58.0
aF84.0
aF84.0
aF81.0
aF38.0
aF83.0
aF48.0
aF82.0
aF85.0
aF43.0
aF50.0
aF77.0
aF43.0
aF72.0
aF57.0
aF61.0
aF76.0
aF48.0
aF84.0
aF48.0
aF84.0
aF81.0
aF84.0
aF79.0
aF42.0
aF85.0
aF83.0
aF42.0
aF84.0
aF45.0
aF85.0
aF46.0
aa(lp54
F43.0
aF41.0
aF47.0
aF47.0
aF45.0
aF54.0
aF49.0
aF74.0
aF43.0
aF46.0
aF48.0
aF71.0
aF49.0
aF81.0
aF82.0
aF45.0
aF65.0
aF76.0
aF83.0
aF79.0
aF44.0
aF83.0
aF50.0
aF85.0
aF46.0
aF87.0
aF78.0
aF49.0
aF67.0
aF85.0
aF46.0
aF81.0
aF83.0
aF80.0
aF84.0
aF85.0
aF49.0
aF85.0
aF58.0
aF70.0
aF51.0
aF48.0
aF71.0
aF82.0
aF81.0
aF43.0
aF50.0
aF44.0
aF66.0
aF84.0
aF50.0
aF100.0
aF50.0
aF51.0
aF83.0
aF48.0
aF46.0
aF51.0
aF78.0
aF47.0
aF46.0
aF48.0
aF76.0
aF44.0
aF46.0
aF83.0
aF51.0
aF46.0
aF46.0
aF80.0
aF47.0
aF47.0
aF49.0
aF73.0
aF47.0
aF79.0
aF49.0
aF45.0
aF40.0
aF84.0
aF57.0
aF78.0
aF69.0
aF81.0
aF73.0
aF41.0
aF88.0
aF46.0
aF83.0
aF51.0
aF49.0
aF47.0
aF51.0
aF82.0
aF51.0
aF46.0
aF78.0
aF50.0
aF83.0
aF46.0
aF78.0
aa(lp55
F90.0
aF86.0
aF92.0
aF91.0
aF91.0
aF82.0
aF93.0
aF33.0
aF89.0
aF92.0
aF94.0
aF33.0
aF91.0
aF48.0
aF46.0
aF91.0
aF26.0
aF36.0
aF55.0
aF50.0
aF91.0
aF42.0
aF91.0
aF46.0
aF94.0
aF47.0
aF35.0
aF89.0
aF27.0
aF52.0
aF93.0
aF36.0
aF46.0
aF38.0
aF43.0
aF45.0
aF91.0
aF46.0
aF82.0
aF75.0
aF93.0
aF88.0
aF66.0
aF45.0
aF57.0
aF92.0
aF90.0
aF30.0
aF23.0
aF46.0
aF88.0
aF50.0
aF100.0
aF96.0
aF42.0
aF49.0
aF92.0
aF88.0
aF46.0
aF92.0
aF93.0
aF90.0
aF37.0
aF88.0
aF93.0
aF42.0
aF86.0
aF92.0
aF93.0
aF56.0
aF93.0
aF92.0
aF90.0
aF35.0
aF91.0
aF46.0
aF89.0
aF92.0
aF48.0
aF48.0
aF82.0
aF41.0
aF74.0
aF54.0
aF58.0
aF85.0
aF45.0
aF94.0
aF46.0
aF91.0
aF89.0
aF93.0
aF87.0
aF40.0
aF92.0
aF94.0
aF40.0
aF93.0
aF43.0
aF92.0
aF44.0
aa(lp56
F88.0
aF83.0
aF91.0
aF90.0
aF89.0
aF84.0
aF92.0
aF35.0
aF86.0
aF90.0
aF92.0
aF34.0
aF91.0
aF49.0
aF46.0
aF90.0
aF28.0
aF37.0
aF57.0
aF52.0
aF89.0
aF43.0
aF91.0
aF48.0
aF91.0
aF49.0
aF36.0
aF89.0
aF28.0
aF53.0
aF91.0
aF38.0
aF48.0
aF39.0
aF45.0
aF46.0
aF91.0
aF48.0
aF82.0
aF75.0
aF93.0
aF87.0
aF66.0
aF47.0
aF56.0
aF89.0
aF91.0
aF31.0
aF25.0
aF48.0
aF88.0
aF51.0
aF96.0
aF100.0
aF43.0
aF48.0
aF91.0
aF87.0
aF49.0
aF90.0
aF91.0
aF89.0
aF39.0
aF86.0
aF91.0
aF44.0
aF85.0
aF91.0
aF91.0
aF57.0
aF91.0
aF90.0
aF89.0
aF37.0
aF90.0
aF48.0
aF89.0
aF90.0
aF49.0
aF50.0
aF82.0
aF43.0
aF74.0
aF54.0
aF59.0
aF83.0
aF47.0
aF92.0
aF48.0
aF92.0
aF88.0
aF91.0
aF86.0
aF41.0
aF91.0
aF91.0
aF41.0
aF90.0
aF44.0
aF90.0
aF46.0
aa(lp57
F37.0
aF35.0
aF39.0
aF40.0
aF38.0
aF47.0
aF41.0
aF78.0
aF37.0
aF38.0
aF41.0
aF77.0
aF42.0
aF81.0
aF79.0
aF38.0
aF71.0
aF77.0
aF74.0
aF74.0
aF36.0
aF85.0
aF42.0
aF82.0
aF38.0
aF81.0
aF80.0
aF41.0
aF74.0
aF79.0
aF38.0
aF86.0
aF81.0
aF81.0
aF83.0
aF84.0
aF42.0
aF83.0
aF52.0
aF63.0
aF42.0
aF41.0
aF66.0
aF88.0
aF75.0
aF37.0
aF41.0
aF41.0
aF72.0
aF82.0
aF43.0
aF83.0
aF42.0
aF43.0
aF100.0
aF47.0
aF40.0
aF43.0
aF75.0
aF38.0
aF39.0
aF41.0
aF81.0
aF38.0
aF38.0
aF82.0
aF46.0
aF38.0
aF39.0
aF76.0
aF40.0
aF39.0
aF40.0
aF74.0
aF39.0
aF78.0
aF41.0
aF37.0
aF49.0
aF81.0
aF50.0
aF79.0
aF63.0
aF78.0
aF65.0
aF36.0
aF84.0
aF39.0
aF84.0
aF45.0
aF42.0
aF40.0
aF45.0
aF83.0
aF44.0
aF37.0
aF77.0
aF41.0
aF83.0
aF40.0
aF77.0
aa(lp58
F46.0
aF47.0
aF47.0
aF49.0
aF49.0
aF47.0
aF50.0
aF43.0
aF45.0
aF46.0
aF47.0
aF46.0
aF48.0
aF51.0
aF47.0
aF45.0
aF43.0
aF43.0
aF49.0
aF48.0
aF45.0
aF46.0
aF47.0
aF47.0
aF47.0
aF46.0
aF44.0
aF48.0
aF42.0
aF46.0
aF45.0
aF47.0
aF49.0
aF46.0
aF46.0
aF49.0
aF47.0
aF47.0
aF50.0
aF48.0
aF48.0
aF46.0
aF47.0
aF47.0
aF43.0
aF48.0
aF48.0
aF30.0
aF43.0
aF48.0
aF46.0
aF48.0
aF49.0
aF48.0
aF47.0
aF100.0
aF46.0
aF48.0
aF42.0
aF46.0
aF48.0
aF47.0
aF45.0
aF42.0
aF49.0
aF47.0
aF49.0
aF48.0
aF48.0
aF45.0
aF48.0
aF49.0
aF47.0
aF45.0
aF46.0
aF42.0
aF48.0
aF48.0
aF44.0
aF45.0
aF47.0
aF42.0
aF46.0
aF46.0
aF44.0
aF46.0
aF48.0
aF47.0
aF45.0
aF48.0
aF46.0
aF48.0
aF48.0
aF49.0
aF48.0
aF47.0
aF46.0
aF47.0
aF47.0
aF47.0
aF44.0
aa(lp59
F90.0
aF86.0
aF92.0
aF90.0
aF89.0
aF81.0
aF90.0
aF31.0
aF90.0
aF89.0
aF92.0
aF31.0
aF90.0
aF46.0
aF45.0
aF90.0
aF25.0
aF33.0
aF52.0
aF49.0
aF87.0
aF39.0
aF87.0
aF44.0
aF91.0
aF44.0
aF32.0
aF87.0
aF24.0
aF49.0
aF90.0
aF33.0
aF42.0
aF36.0
aF42.0
aF42.0
aF88.0
aF42.0
aF78.0
aF71.0
aF89.0
aF88.0
aF66.0
aF42.0
aF54.0
aF91.0
aF88.0
aF29.0
aF22.0
aF43.0
aF84.0
aF46.0
aF92.0
aF91.0
aF40.0
aF46.0
aF100.0
aF86.0
aF47.0
aF90.0
aF93.0
aF89.0
aF35.0
aF88.0
aF93.0
aF41.0
aF85.0
aF91.0
aF93.0
aF54.0
aF93.0
aF89.0
aF88.0
aF33.0
aF89.0
aF44.0
aF88.0
aF90.0
aF44.0
aF46.0
aF81.0
aF40.0
aF72.0
aF51.0
aF56.0
aF85.0
aF41.0
aF92.0
aF45.0
aF90.0
aF87.0
aF92.0
aF86.0
aF35.0
aF88.0
aF92.0
aF37.0
aF91.0
aF41.0
aF90.0
aF42.0
aa(lp60
F86.0
aF81.0
aF85.0
aF87.0
aF84.0
aF79.0
aF86.0
aF35.0
aF83.0
aF86.0
aF88.0
aF38.0
aF84.0
aF50.0
aF51.0
aF84.0
aF26.0
aF38.0
aF57.0
aF53.0
aF85.0
aF44.0
aF87.0
aF50.0
aF87.0
aF47.0
aF37.0
aF86.0
aF27.0
aF54.0
aF85.0
aF37.0
aF46.0
aF40.0
aF47.0
aF46.0
aF85.0
aF46.0
aF79.0
aF73.0
aF86.0
aF86.0
aF64.0
aF47.0
aF60.0
aF85.0
aF83.0
aF31.0
aF26.0
aF47.0
aF83.0
aF51.0
aF88.0
aF87.0
aF43.0
aF48.0
aF86.0
aF100.0
aF50.0
aF85.0
aF88.0
aF88.0
aF41.0
aF83.0
aF88.0
aF45.0
aF86.0
aF85.0
aF87.0
aF59.0
aF88.0
aF86.0
aF85.0
aF37.0
aF84.0
aF49.0
aF83.0
aF86.0
aF44.0
aF49.0
aF83.0
aF41.0
aF72.0
aF54.0
aF59.0
aF81.0
aF45.0
aF86.0
aF47.0
aF86.0
aF83.0
aF88.0
aF83.0
aF40.0
aF86.0
aF86.0
aF42.0
aF86.0
aF45.0
aF84.0
aF47.0
aa(lp61
F43.0
aF40.0
aF46.0
aF46.0
aF44.0
aF52.0
aF46.0
aF65.0
aF42.0
aF44.0
aF46.0
aF69.0
aF49.0
aF72.0
aF80.0
aF47.0
aF59.0
aF67.0
aF77.0
aF77.0
aF41.0
aF79.0
aF48.0
aF77.0
aF46.0
aF79.0
aF71.0
aF49.0
aF59.0
aF79.0
aF43.0
aF73.0
aF76.0
aF73.0
aF77.0
aF80.0
aF48.0
aF74.0
aF55.0
aF67.0
aF48.0
aF46.0
aF67.0
aF76.0
aF79.0
aF43.0
aF47.0
aF43.0
aF61.0
aF77.0
aF50.0
aF78.0
aF46.0
aF49.0
aF75.0
aF42.0
aF47.0
aF50.0
aF100.0
aF42.0
aF45.0
aF46.0
aF74.0
aF44.0
aF45.0
aF76.0
aF50.0
aF44.0
aF44.0
aF80.0
aF45.0
aF44.0
aF46.0
aF65.0
aF45.0
aF78.0
aF46.0
aF43.0
aF49.0
aF79.0
aF56.0
aF73.0
aF66.0
aF79.0
aF71.0
aF41.0
aF77.0
aF45.0
aF78.0
aF49.0
aF48.0
aF45.0
aF48.0
aF72.0
aF48.0
aF44.0
aF73.0
aF47.0
aF76.0
aF46.0
aF74.0
aa(lp62
F90.0
aF84.0
aF90.0
aF90.0
aF91.0
aF78.0
aF90.0
aF31.0
aF87.0
aF90.0
aF90.0
aF30.0
aF88.0
aF45.0
aF43.0
aF89.0
aF24.0
aF33.0
aF51.0
aF45.0
aF90.0
aF37.0
aF86.0
aF42.0
aF91.0
aF43.0
aF31.0
aF86.0
aF23.0
aF46.0
aF91.0
aF32.0
aF41.0
aF34.0
aF41.0
aF40.0
aF87.0
aF41.0
aF78.0
aF69.0
aF88.0
aF86.0
aF63.0
aF40.0
aF52.0
aF90.0
aF86.0
aF30.0
aF21.0
aF43.0
aF83.0
aF47.0
aF92.0
aF90.0
aF38.0
aF46.0
aF90.0
aF85.0
aF42.0
aF100.0
aF89.0
aF87.0
aF34.0
aF86.0
aF93.0
aF38.0
aF83.0
aF90.0
aF92.0
aF51.0
aF93.0
aF91.0
aF88.0
aF33.0
aF89.0
aF41.0
aF87.0
aF91.0
aF46.0
aF43.0
aF78.0
aF37.0
aF69.0
aF49.0
aF54.0
aF86.0
aF41.0
aF92.0
aF41.0
aF87.0
aF86.0
aF93.0
aF83.0
aF35.0
aF87.0
aF93.0
aF36.0
aF90.0
aF38.0
aF89.0
aF40.0
aa(lp63
F91.0
aF86.0
aF91.0
aF92.0
aF89.0
aF82.0
aF92.0
aF31.0
aF88.0
aF91.0
aF93.0
aF32.0
aF92.0
aF46.0
aF46.0
aF89.0
aF24.0
aF34.0
aF53.0
aF50.0
aF88.0
aF40.0
aF89.0
aF44.0
aF93.0
aF45.0
aF33.0
aF90.0
aF24.0
aF51.0
aF91.0
aF33.0
aF43.0
aF36.0
aF43.0
aF42.0
aF89.0
aF43.0
aF80.0
aF71.0
aF91.0
aF88.0
aF65.0
aF43.0
aF56.0
aF92.0
aF89.0
aF30.0
aF21.0
aF44.0
aF85.0
aF46.0
aF93.0
aF91.0
aF39.0
aF48.0
aF93.0
aF88.0
aF45.0
aF89.0
aF100.0
aF92.0
aF35.0
aF89.0
aF92.0
aF41.0
aF87.0
aF91.0
aF93.0
aF56.0
aF92.0
aF89.0
aF89.0
aF32.0
aF89.0
aF45.0
aF89.0
aF91.0
aF48.0
aF46.0
aF85.0
aF38.0
aF73.0
aF52.0
aF57.0
aF85.0
aF42.0
aF93.0
aF46.0
aF91.0
aF88.0
aF92.0
aF87.0
aF36.0
aF89.0
aF93.0
aF37.0
aF91.0
aF41.0
aF90.0
aF43.0
aa(lp64
F89.0
aF84.0
aF87.0
aF90.0
aF88.0
aF81.0
aF89.0
aF32.0
aF86.0
aF88.0
aF91.0
aF34.0
aF90.0
aF47.0
aF46.0
aF87.0
aF26.0
aF33.0
aF53.0
aF49.0
aF86.0
aF40.0
aF88.0
aF46.0
aF89.0
aF45.0
aF34.0
aF88.0
aF26.0
aF51.0
aF88.0
aF34.0
aF42.0
aF37.0
aF43.0
aF43.0
aF87.0
aF44.0
aF78.0
aF71.0
aF88.0
aF86.0
aF64.0
aF44.0
aF57.0
aF87.0
aF87.0
aF30.0
aF23.0
aF45.0
aF83.0
aF48.0
aF90.0
aF89.0
aF41.0
aF47.0
aF89.0
aF88.0
aF46.0
aF87.0
aF92.0
aF100.0
aF36.0
aF84.0
aF90.0
aF42.0
aF86.0
aF89.0
aF90.0
aF57.0
aF91.0
aF87.0
aF89.0
aF34.0
aF85.0
aF45.0
aF86.0
aF88.0
aF44.0
aF46.0
aF81.0
aF39.0
aF72.0
aF51.0
aF57.0
aF84.0
aF43.0
aF92.0
aF46.0
aF87.0
aF85.0
aF90.0
aF86.0
aF37.0
aF87.0
aF90.0
aF38.0
aF88.0
aF42.0
aF89.0
aF45.0
aa(lp65
F34.0
aF31.0
aF36.0
aF35.0
aF33.0
aF45.0
aF36.0
aF75.0
aF35.0
aF34.0
aF35.0
aF77.0
aF37.0
aF74.0
aF75.0
aF33.0
aF71.0
aF76.0
aF71.0
aF76.0
aF32.0
aF81.0
aF39.0
aF79.0
aF34.0
aF78.0
aF79.0
aF38.0
aF72.0
aF76.0
aF37.0
aF82.0
aF77.0
aF79.0
aF78.0
aF80.0
aF38.0
aF76.0
aF46.0
aF58.0
aF38.0
aF37.0
aF58.0
aF82.0
aF71.0
aF34.0
aF36.0
aF41.0
aF71.0
aF76.0
aF40.0
aF76.0
aF37.0
aF39.0
aF81.0
aF45.0
aF35.0
aF41.0
aF74.0
aF34.0
aF35.0
aF36.0
aF100.0
aF33.0
aF35.0
aF78.0
aF41.0
aF33.0
aF34.0
aF74.0
aF35.0
aF35.0
aF38.0
aF72.0
aF35.0
aF74.0
aF37.0
aF34.0
aF43.0
aF80.0
aF48.0
aF71.0
aF57.0
aF74.0
aF63.0
aF33.0
aF79.0
aF34.0
aF78.0
aF39.0
aF39.0
aF35.0
aF40.0
aF78.0
aF39.0
aF34.0
aF78.0
aF37.0
aF79.0
aF37.0
aF73.0
aa(lp66
F85.0
aF82.0
aF85.0
aF88.0
aF84.0
aF77.0
aF87.0
aF31.0
aF83.0
aF87.0
aF87.0
aF31.0
aF85.0
aF43.0
aF41.0
aF85.0
aF22.0
aF33.0
aF50.0
aF46.0
aF85.0
aF38.0
aF84.0
aF42.0
aF88.0
aF42.0
aF32.0
aF85.0
aF22.0
aF47.0
aF87.0
aF32.0
aF40.0
aF34.0
aF39.0
aF39.0
aF85.0
aF41.0
aF77.0
aF67.0
aF87.0
aF83.0
aF62.0
aF38.0
aF52.0
aF86.0
aF85.0
aF29.0
aF22.0
aF41.0
aF83.0
aF44.0
aF88.0
aF86.0
aF38.0
aF42.0
aF88.0
aF83.0
aF44.0
aF86.0
aF89.0
aF84.0
aF33.0
aF100.0
aF88.0
aF39.0
aF83.0
aF86.0
aF87.0
aF51.0
aF89.0
aF85.0
aF83.0
aF31.0
aF86.0
aF42.0
aF84.0
aF88.0
aF46.0
aF43.0
aF78.0
aF41.0
aF67.0
aF50.0
aF52.0
aF80.0
aF40.0
aF88.0
aF42.0
aF85.0
aF83.0
aF89.0
aF81.0
aF35.0
aF83.0
aF88.0
aF35.0
aF88.0
aF39.0
aF86.0
aF40.0
aa(lp67
F92.0
aF87.0
aF90.0
aF92.0
aF91.0
aF82.0
aF91.0
aF31.0
aF89.0
aF94.0
aF92.0
aF31.0
aF91.0
aF44.0
aF45.0
aF92.0
aF24.0
aF33.0
aF52.0
aF48.0
aF91.0
aF38.0
aF89.0
aF43.0
aF94.0
aF44.0
aF33.0
aF91.0
aF23.0
aF49.0
aF92.0
aF33.0
aF41.0
aF36.0
aF42.0
aF42.0
aF90.0
aF42.0
aF81.0
aF70.0
aF91.0
aF89.0
aF65.0
aF43.0
aF55.0
aF92.0
aF89.0
aF28.0
aF21.0
aF43.0
aF85.0
aF46.0
aF93.0
aF91.0
aF38.0
aF49.0
aF93.0
aF88.0
aF45.0
aF93.0
aF92.0
aF90.0
aF35.0
aF88.0
aF100.0
aF41.0
aF86.0
aF92.0
aF94.0
aF55.0
aF94.0
aF91.0
aF91.0
aF32.0
aF89.0
aF44.0
aF88.0
aF94.0
aF46.0
aF45.0
aF83.0
aF38.0
aF71.0
aF50.0
aF55.0
aF89.0
aF42.0
aF95.0
aF44.0
aF91.0
aF89.0
aF94.0
aF86.0
aF35.0
aF89.0
aF94.0
aF36.0
aF93.0
aF41.0
aF91.0
aF43.0
aa(lp68
F39.0
aF37.0
aF40.0
aF41.0
aF39.0
aF48.0
aF42.0
aF76.0
aF37.0
aF40.0
aF42.0
aF75.0
aF44.0
aF78.0
aF81.0
aF39.0
aF70.0
aF76.0
aF79.0
aF77.0
aF38.0
aF84.0
aF44.0
aF83.0
aF40.0
aF84.0
aF82.0
aF43.0
aF70.0
aF82.0
aF40.0
aF83.0
aF82.0
aF83.0
aF83.0
aF89.0
aF43.0
aF83.0
aF52.0
aF63.0
aF45.0
aF42.0
aF67.0
aF84.0
aF77.0
aF38.0
aF44.0
aF41.0
aF69.0
aF84.0
aF45.0
aF83.0
aF42.0
aF44.0
aF82.0
aF47.0
aF41.0
aF45.0
aF76.0
aF38.0
aF41.0
aF42.0
aF78.0
aF39.0
aF41.0
aF100.0
aF46.0
aF39.0
aF40.0
aF79.0
aF40.0
aF40.0
aF44.0
aF74.0
aF42.0
aF81.0
aF42.0
aF39.0
aF37.0
aF82.0
aF54.0
aF76.0
aF63.0
aF78.0
aF67.0
aF37.0
aF83.0
aF40.0
aF86.0
aF45.0
aF45.0
aF40.0
aF44.0
aF81.0
aF45.0
aF39.0
aF78.0
aF44.0
aF99.0
aF42.0
aF79.0
aa(lp69
F85.0
aF80.0
aF84.0
aF87.0
aF84.0
aF80.0
aF87.0
aF35.0
aF81.0
aF84.0
aF86.0
aF39.0
aF87.0
aF52.0
aF50.0
aF83.0
aF27.0
aF39.0
aF57.0
aF54.0
aF81.0
aF45.0
aF85.0
aF50.0
aF85.0
aF48.0
aF38.0
aF86.0
aF29.0
aF54.0
aF83.0
aF38.0
aF48.0
aF41.0
aF48.0
aF47.0
aF86.0
aF48.0
aF79.0
aF75.0
aF84.0
aF83.0
aF68.0
aF49.0
aF62.0
aF85.0
aF83.0
aF29.0
aF27.0
aF49.0
aF81.0
aF51.0
aF86.0
aF85.0
aF46.0
aF49.0
aF85.0
aF86.0
aF50.0
aF83.0
aF87.0
aF86.0
aF41.0
aF83.0
aF86.0
aF46.0
aF100.0
aF85.0
aF86.0
aF60.0
aF88.0
aF83.0
aF85.0
aF37.0
aF85.0
aF49.0
aF83.0
aF83.0
aF46.0
aF52.0
aF83.0
aF42.0
aF74.0
aF56.0
aF61.0
aF80.0
aF46.0
aF86.0
aF49.0
aF86.0
aF84.0
aF87.0
aF84.0
aF41.0
aF83.0
aF86.0
aF43.0
aF85.0
aF46.0
aF84.0
aF48.0
aa(lp70
F90.0
aF85.0
aF92.0
aF92.0
aF93.0
aF82.0
aF91.0
aF30.0
aF87.0
aF90.0
aF91.0
aF31.0
aF91.0
aF45.0
aF42.0
aF92.0
aF26.0
aF32.0
aF52.0
aF47.0
aF90.0
aF37.0
aF88.0
aF42.0
aF91.0
aF43.0
aF31.0
aF90.0
aF25.0
aF48.0
aF90.0
aF32.0
aF41.0
aF33.0
aF40.0
aF40.0
aF91.0
aF43.0
aF81.0
aF71.0
aF90.0
aF88.0
aF66.0
aF42.0
aF53.0
aF92.0
aF88.0
aF28.0
aF21.0
aF45.0
aF83.0
aF46.0
aF92.0
aF91.0
aF38.0
aF48.0
aF91.0
aF85.0
aF44.0
aF90.0
aF91.0
aF89.0
aF33.0
aF86.0
aF92.0
aF39.0
aF85.0
aF100.0
aF94.0
aF52.0
aF93.0
aF90.0
aF89.0
aF31.0
aF88.0
aF43.0
aF89.0
aF91.0
aF46.0
aF44.0
aF81.0
aF38.0
aF71.0
aF50.0
aF56.0
aF87.0
aF40.0
aF95.0
aF43.0
aF89.0
aF88.0
aF94.0
aF84.0
aF35.0
aF86.0
aF92.0
aF36.0
aF89.0
aF39.0
aF89.0
aF42.0
aa(lp71
F93.0
aF89.0
aF93.0
aF92.0
aF94.0
aF81.0
aF92.0
aF32.0
aF90.0
aF93.0
aF94.0
aF32.0
aF92.0
aF45.0
aF43.0
aF92.0
aF25.0
aF32.0
aF51.0
aF47.0
aF91.0
aF37.0
aF88.0
aF43.0
aF93.0
aF43.0
aF33.0
aF89.0
aF25.0
aF49.0
aF92.0
aF33.0
aF41.0
aF36.0
aF42.0
aF40.0
aF90.0
aF43.0
aF83.0
aF70.0
aF90.0
aF88.0
aF66.0
aF43.0
aF54.0
aF93.0
aF89.0
aF29.0
aF23.0
aF44.0
aF85.0
aF46.0
aF93.0
aF91.0
aF39.0
aF48.0
aF93.0
aF87.0
aF44.0
aF92.0
aF93.0
aF90.0
aF34.0
aF87.0
aF94.0
aF40.0
aF86.0
aF94.0
aF100.0
aF53.0
aF95.0
aF91.0
aF90.0
aF31.0
aF89.0
aF43.0
aF88.0
aF94.0
aF48.0
aF45.0
aF81.0
aF39.0
aF71.0
aF50.0
aF56.0
aF89.0
aF41.0
aF95.0
aF44.0
aF90.0
aF89.0
aF94.0
aF85.0
aF36.0
aF88.0
aF93.0
aF37.0
aF92.0
aF40.0
aF91.0
aF42.0
aa(lp72
F55.0
aF48.0
aF53.0
aF55.0
aF51.0
aF58.0
aF54.0
aF64.0
aF50.0
aF53.0
aF55.0
aF67.0
aF57.0
aF73.0
aF85.0
aF52.0
aF57.0
aF68.0
aF83.0
aF82.0
aF51.0
aF76.0
aF59.0
aF82.0
aF54.0
aF80.0
aF72.0
aF57.0
aF56.0
aF85.0
aF53.0
aF71.0
aF75.0
aF74.0
aF77.0
aF82.0
aF56.0
aF74.0
aF61.0
aF74.0
aF58.0
aF55.0
aF72.0
aF79.0
aF89.0
aF51.0
aF55.0
aF43.0
aF55.0
aF81.0
aF58.0
aF80.0
aF56.0
aF57.0
aF76.0
aF45.0
aF54.0
aF59.0
aF80.0
aF51.0
aF56.0
aF57.0
aF74.0
aF51.0
aF55.0
aF79.0
aF60.0
aF52.0
aF53.0
aF100.0
aF54.0
aF53.0
aF57.0
aF66.0
aF55.0
aF82.0
aF55.0
aF52.0
aF49.0
aF83.0
aF67.0
aF69.0
aF74.0
aF81.0
aF75.0
aF51.0
aF77.0
aF54.0
aF81.0
aF58.0
aF57.0
aF53.0
aF59.0
aF70.0
aF57.0
aF53.0
aF72.0
aF57.0
aF79.0
aF54.0
aF77.0
aa(lp73
F92.0
aF87.0
aF92.0
aF94.0
aF93.0
aF81.0
aF93.0
aF32.0
aF90.0
aF92.0
aF92.0
aF32.0
aF91.0
aF47.0
aF45.0
aF93.0
aF23.0
aF33.0
aF53.0
aF47.0
aF89.0
aF39.0
aF89.0
aF44.0
aF92.0
aF44.0
aF32.0
aF90.0
aF23.0
aF48.0
aF91.0
aF33.0
aF43.0
aF35.0
aF41.0
aF42.0
aF91.0
aF43.0
aF82.0
aF72.0
aF90.0
aF88.0
aF68.0
aF43.0
aF55.0
aF92.0
aF88.0
aF29.0
aF22.0
aF45.0
aF84.0
aF47.0
aF93.0
aF91.0
aF40.0
aF48.0
aF93.0
aF88.0
aF45.0
aF93.0
aF92.0
aF91.0
aF35.0
aF89.0
aF94.0
aF40.0
aF88.0
aF93.0
aF95.0
aF54.0
aF100.0
aF91.0
aF89.0
aF33.0
aF89.0
aF43.0
aF89.0
aF92.0
aF48.0
aF46.0
aF81.0
aF39.0
aF73.0
aF51.0
aF57.0
aF88.0
aF42.0
aF95.0
aF44.0
aF89.0
aF88.0
aF98.0
aF86.0
aF37.0
aF88.0
aF93.0
aF37.0
aF93.0
aF40.0
aF90.0
aF41.0
aa(lp74
F87.0
aF84.0
aF89.0
aF90.0
aF89.0
aF80.0
aF90.0
aF32.0
aF85.0
aF89.0
aF89.0
aF32.0
aF89.0
aF46.0
aF44.0
aF90.0
aF25.0
aF36.0
aF53.0
aF48.0
aF88.0
aF38.0
aF86.0
aF45.0
aF91.0
aF45.0
aF32.0
aF88.0
aF24.0
aF48.0
aF90.0
aF33.0
aF43.0
aF34.0
aF42.0
aF41.0
aF88.0
aF42.0
aF81.0
aF71.0
aF89.0
aF85.0
aF65.0
aF43.0
aF54.0
aF89.0
aF87.0
aF30.0
aF23.0
aF44.0
aF84.0
aF47.0
aF92.0
aF90.0
aF39.0
aF49.0
aF89.0
aF86.0
aF44.0
aF91.0
aF89.0
aF87.0
aF35.0
aF85.0
aF91.0
aF40.0
aF83.0
aF90.0
aF91.0
aF53.0
aF91.0
aF100.0
aF87.0
aF34.0
aF89.0
aF44.0
aF88.0
aF89.0
aF48.0
aF44.0
aF80.0
aF38.0
aF70.0
aF50.0
aF55.0
aF84.0
aF42.0
aF92.0
aF43.0
aF89.0
aF86.0
aF91.0
aF82.0
aF36.0
aF86.0
aF90.0
aF38.0
aF89.0
aF41.0
aF89.0
aF42.0
aa(lp75
F89.0
aF82.0
aF89.0
aF88.0
aF89.0
aF81.0
aF88.0
aF34.0
aF85.0
aF89.0
aF89.0
aF34.0
aF88.0
aF47.0
aF48.0
aF87.0
aF29.0
aF37.0
aF54.0
aF51.0
aF86.0
aF42.0
aF88.0
aF46.0
aF89.0
aF46.0
aF36.0
aF87.0
aF28.0
aF53.0
aF89.0
aF36.0
aF43.0
aF39.0
aF44.0
aF45.0
aF86.0
aF45.0
aF81.0
aF71.0
aF88.0
aF88.0
aF64.0
aF45.0
aF58.0
aF88.0
aF88.0
aF30.0
aF24.0
aF45.0
aF81.0
aF49.0
aF90.0
aF89.0
aF40.0
aF47.0
aF88.0
aF85.0
aF46.0
aF88.0
aF89.0
aF89.0
aF38.0
aF83.0
aF91.0
aF44.0
aF85.0
aF89.0
aF90.0
aF57.0
aF89.0
aF87.0
aF100.0
aF34.0
aF86.0
aF48.0
aF85.0
aF89.0
aF44.0
aF48.0
aF81.0
aF39.0
aF71.0
aF53.0
aF58.0
aF83.0
aF44.0
aF90.0
aF46.0
aF88.0
aF91.0
aF88.0
aF84.0
aF38.0
aF86.0
aF90.0
aF40.0
aF89.0
aF44.0
aF89.0
aF47.0
aa(lp76
F32.0
aF30.0
aF33.0
aF34.0
aF31.0
aF42.0
aF34.0
aF72.0
aF30.0
aF32.0
aF33.0
aF69.0
aF36.0
aF72.0
aF67.0
aF31.0
aF69.0
aF73.0
aF67.0
aF66.0
aF30.0
aF77.0
aF37.0
aF75.0
aF32.0
aF75.0
aF76.0
aF34.0
aF73.0
aF70.0
aF33.0
aF78.0
aF76.0
aF75.0
aF74.0
aF77.0
aF36.0
aF74.0
aF44.0
aF54.0
aF37.0
aF34.0
aF56.0
aF72.0
aF65.0
aF30.0
aF37.0
aF47.0
aF70.0
aF73.0
aF38.0
aF73.0
aF35.0
aF37.0
aF74.0
aF45.0
aF33.0
aF37.0
aF65.0
aF33.0
aF32.0
aF34.0
aF72.0
aF31.0
aF32.0
aF74.0
aF37.0
aF31.0
aF31.0
aF66.0
aF33.0
aF34.0
aF34.0
aF100.0
aF32.0
aF69.0
aF34.0
aF32.0
aF40.0
aF71.0
aF44.0
aF71.0
aF53.0
aF69.0
aF60.0
aF32.0
aF77.0
aF32.0
aF73.0
aF37.0
aF36.0
aF32.0
aF37.0
aF77.0
aF38.0
aF31.0
aF71.0
aF35.0
aF75.0
aF35.0
aF69.0
aa(lp77
F86.0
aF82.0
aF89.0
aF88.0
aF87.0
aF78.0
aF89.0
aF31.0
aF85.0
aF87.0
aF89.0
aF32.0
aF88.0
aF46.0
aF45.0
aF87.0
aF24.0
aF34.0
aF53.0
aF48.0
aF86.0
aF38.0
aF85.0
aF45.0
aF89.0
aF44.0
aF33.0
aF86.0
aF23.0
aF49.0
aF89.0
aF34.0
aF42.0
aF36.0
aF42.0
aF42.0
aF87.0
aF43.0
aF79.0
aF72.0
aF89.0
aF84.0
aF65.0
aF43.0
aF54.0
aF89.0
aF86.0
aF28.0
aF22.0
aF44.0
aF83.0
aF47.0
aF91.0
aF90.0
aF39.0
aF46.0
aF89.0
aF84.0
aF45.0
aF89.0
aF89.0
aF85.0
aF35.0
aF86.0
aF89.0
aF42.0
aF85.0
aF88.0
aF89.0
aF55.0
aF89.0
aF89.0
aF86.0
aF32.0
aF100.0
aF44.0
aF88.0
aF89.0
aF43.0
aF45.0
aF79.0
aF40.0
aF71.0
aF51.0
aF56.0
aF82.0
aF42.0
aF89.0
aF44.0
aF88.0
aF85.0
aF89.0
aF81.0
aF36.0
aF86.0
aF88.0
aF38.0
aF88.0
aF42.0
aF89.0
aF43.0
aa(lp78
F43.0
aF37.0
aF44.0
aF45.0
aF43.0
aF51.0
aF44.0
aF68.0
aF40.0
aF43.0
aF46.0
aF69.0
aF48.0
aF75.0
aF81.0
aF43.0
aF64.0
aF73.0
aF79.0
aF81.0
aF41.0
aF79.0
aF48.0
aF81.0
aF47.0
aF80.0
aF77.0
aF47.0
aF65.0
aF83.0
aF45.0
aF76.0
aF77.0
aF77.0
aF79.0
aF83.0
aF46.0
aF76.0
aF53.0
aF63.0
aF48.0
aF47.0
aF65.0
aF79.0
aF81.0
aF42.0
aF46.0
aF41.0
aF63.0
aF83.0
aF48.0
aF79.0
aF46.0
aF48.0
aF78.0
aF42.0
aF44.0
aF49.0
aF78.0
aF41.0
aF45.0
aF45.0
aF74.0
aF42.0
aF44.0
aF81.0
aF49.0
aF43.0
aF43.0
aF82.0
aF43.0
aF44.0
aF48.0
aF69.0
aF44.0
aF100.0
aF45.0
aF43.0
aF49.0
aF82.0
aF57.0
aF71.0
aF65.0
aF79.0
aF67.0
aF40.0
aF80.0
aF44.0
aF83.0
aF49.0
aF48.0
aF43.0
aF48.0
aF74.0
aF49.0
aF42.0
aF75.0
aF48.0
aF81.0
aF45.0
aF84.0
aa(lp79
F85.0
aF81.0
aF87.0
aF88.0
aF86.0
aF81.0
aF89.0
aF33.0
aF84.0
aF85.0
aF87.0
aF33.0
aF88.0
aF47.0
aF46.0
aF86.0
aF26.0
aF35.0
aF54.0
aF49.0
aF85.0
aF40.0
aF87.0
aF46.0
aF87.0
aF45.0
aF33.0
aF86.0
aF26.0
aF50.0
aF86.0
aF36.0
aF44.0
aF36.0
aF44.0
aF42.0
aF89.0
aF45.0
aF80.0
aF71.0
aF88.0
aF85.0
aF66.0
aF45.0
aF54.0
aF87.0
aF86.0
aF29.0
aF24.0
aF47.0
aF82.0
aF49.0
aF89.0
aF89.0
aF41.0
aF48.0
aF88.0
aF83.0
aF46.0
aF87.0
aF89.0
aF86.0
aF37.0
aF84.0
aF88.0
aF42.0
aF83.0
aF89.0
aF88.0
aF55.0
aF89.0
aF88.0
aF85.0
aF34.0
aF88.0
aF45.0
aF100.0
aF86.0
aF41.0
aF47.0
aF82.0
aF40.0
aF71.0
aF52.0
aF56.0
aF80.0
aF43.0
aF89.0
aF46.0
aF89.0
aF85.0
aF89.0
aF83.0
aF37.0
aF84.0
aF89.0
aF40.0
aF86.0
aF42.0
aF85.0
aF43.0
aa(lp80
F90.0
aF86.0
aF90.0
aF92.0
aF91.0
aF79.0
aF90.0
aF31.0
aF88.0
aF94.0
aF90.0
aF31.0
aF88.0
aF45.0
aF43.0
aF90.0
aF23.0
aF33.0
aF50.0
aF48.0
aF91.0
aF38.0
aF87.0
aF43.0
aF92.0
aF42.0
aF33.0
aF88.0
aF24.0
aF49.0
aF91.0
aF33.0
aF41.0
aF35.0
aF41.0
aF40.0
aF88.0
aF41.0
aF81.0
aF69.0
aF89.0
aF86.0
aF63.0
aF42.0
aF54.0
aF91.0
aF86.0
aF30.0
aF21.0
aF42.0
aF85.0
aF45.0
aF92.0
aF90.0
aF37.0
aF48.0
aF90.0
aF86.0
aF43.0
aF91.0
aF91.0
aF88.0
aF34.0
aF88.0
aF94.0
aF39.0
aF83.0
aF91.0
aF94.0
aF52.0
aF92.0
aF89.0
aF89.0
aF32.0
aF89.0
aF43.0
aF86.0
aF100.0
aF46.0
aF44.0
aF79.0
aF37.0
aF69.0
aF49.0
aF54.0
aF87.0
aF40.0
aF92.0
aF43.0
aF88.0
aF86.0
aF92.0
aF83.0
aF36.0
aF88.0
aF92.0
aF37.0
aF92.0
aF40.0
aF89.0
aF42.0
aa(lp81
F44.0
aF37.0
aF44.0
aF48.0
aF49.0
aF44.0
aF49.0
aF48.0
aF44.0
aF48.0
aF48.0
aF51.0
aF46.0
aF40.0
aF40.0
aF51.0
aF38.0
aF41.0
aF48.0
aF46.0
aF46.0
aF46.0
aF49.0
aF40.0
aF48.0
aF43.0
aF48.0
aF46.0
aF46.0
aF44.0
aF46.0
aF49.0
aF49.0
aF48.0
aF46.0
aF46.0
aF46.0
aF37.0
aF46.0
aF46.0
aF49.0
aF48.0
aF48.0
aF48.0
aF46.0
aF40.0
aF48.0
aF43.0
aF48.0
aF48.0
aF43.0
aF40.0
aF48.0
aF49.0
aF49.0
aF44.0
aF44.0
aF44.0
aF49.0
aF46.0
aF48.0
aF44.0
aF43.0
aF46.0
aF46.0
aF37.0
aF46.0
aF46.0
aF48.0
aF49.0
aF48.0
aF48.0
aF44.0
aF40.0
aF43.0
aF49.0
aF41.0
aF46.0
aF100.0
aF40.0
aF46.0
aF51.0
aF52.0
aF43.0
aF46.0
aF46.0
aF48.0
aF48.0
aF46.0
aF51.0
aF43.0
aF48.0
aF46.0
aF52.0
aF43.0
aF46.0
aF41.0
aF48.0
aF37.0
aF48.0
aF43.0
aa(lp82
F44.0
aF41.0
aF46.0
aF46.0
aF45.0
aF53.0
aF47.0
aF74.0
aF44.0
aF44.0
aF46.0
aF74.0
aF49.0
aF77.0
aF83.0
aF44.0
aF66.0
aF75.0
aF79.0
aF82.0
aF42.0
aF82.0
aF49.0
aF87.0
aF44.0
aF82.0
aF77.0
aF48.0
aF66.0
aF84.0
aF46.0
aF80.0
aF80.0
aF79.0
aF83.0
aF85.0
aF48.0
aF80.0
aF56.0
aF68.0
aF49.0
aF46.0
aF69.0
aF83.0
aF83.0
aF43.0
aF47.0
aF43.0
aF65.0
aF84.0
aF50.0
aF84.0
aF48.0
aF50.0
aF81.0
aF45.0
aF46.0
aF49.0
aF79.0
aF43.0
aF46.0
aF46.0
aF80.0
aF43.0
aF45.0
aF82.0
aF52.0
aF44.0
aF45.0
aF83.0
aF46.0
aF44.0
aF48.0
aF71.0
aF45.0
aF82.0
aF47.0
aF44.0
aF40.0
aF100.0
aF57.0
aF74.0
aF69.0
aF81.0
aF71.0
aF41.0
aF83.0
aF45.0
aF84.0
aF49.0
aF48.0
aF46.0
aF50.0
aF79.0
aF50.0
aF44.0
aF79.0
aF48.0
aF83.0
aF46.0
aF80.0
aa(lp83
F81.0
aF76.0
aF81.0
aF83.0
aF79.0
aF81.0
aF82.0
aF42.0
aF77.0
aF79.0
aF82.0
aF44.0
aF86.0
aF56.0
aF58.0
aF80.0
aF34.0
aF43.0
aF65.0
aF61.0
aF79.0
aF50.0
aF82.0
aF55.0
aF81.0
aF56.0
aF45.0
aF84.0
aF35.0
aF61.0
aF79.0
aF45.0
aF53.0
aF48.0
aF54.0
aF53.0
aF83.0
aF53.0
aF82.0
aF76.0
aF83.0
aF83.0
aF72.0
aF55.0
aF66.0
aF80.0
aF81.0
aF33.0
aF34.0
aF57.0
aF77.0
aF57.0
aF82.0
aF82.0
aF50.0
aF47.0
aF81.0
aF83.0
aF56.0
aF78.0
aF85.0
aF81.0
aF48.0
aF78.0
aF83.0
aF54.0
aF83.0
aF81.0
aF81.0
aF67.0
aF81.0
aF80.0
aF81.0
aF44.0
aF79.0
aF57.0
aF82.0
aF79.0
aF46.0
aF57.0
aF100.0
aF47.0
aF77.0
aF61.0
aF65.0
aF75.0
aF52.0
aF82.0
aF56.0
aF86.0
aF83.0
aF81.0
aF79.0
aF47.0
aF80.0
aF81.0
aF47.0
aF81.0
aF54.0
aF80.0
aF55.0
aa(lp84
F35.0
aF35.0
aF38.0
aF40.0
aF37.0
aF47.0
aF41.0
aF73.0
aF36.0
aF38.0
aF39.0
aF70.0
aF41.0
aF78.0
aF70.0
aF38.0
aF69.0
aF73.0
aF73.0
aF66.0
aF35.0
aF81.0
aF41.0
aF74.0
aF37.0
aF79.0
aF75.0
aF41.0
aF70.0
aF74.0
aF37.0
aF79.0
aF84.0
aF76.0
aF75.0
aF80.0
aF40.0
aF82.0
aF49.0
aF60.0
aF42.0
aF39.0
aF64.0
aF76.0
aF69.0
aF36.0
aF41.0
aF41.0
aF69.0
aF77.0
aF43.0
aF78.0
aF41.0
aF43.0
aF79.0
aF42.0
aF40.0
aF41.0
aF73.0
aF37.0
aF38.0
aF39.0
aF71.0
aF41.0
aF38.0
aF76.0
aF42.0
aF38.0
aF39.0
aF69.0
aF39.0
aF38.0
aF39.0
aF71.0
aF40.0
aF71.0
aF40.0
aF37.0
aF51.0
aF74.0
aF47.0
aF100.0
aF61.0
aF77.0
aF66.0
aF34.0
aF83.0
aF39.0
aF76.0
aF43.0
aF40.0
aF39.0
aF43.0
aF81.0
aF43.0
aF37.0
aF76.0
aF40.0
aF77.0
aF39.0
aF68.0
aa(lp85
F69.0
aF66.0
aF71.0
aF72.0
aF70.0
aF71.0
aF73.0
aF52.0
aF69.0
aF70.0
aF73.0
aF54.0
aF74.0
aF68.0
aF66.0
aF71.0
aF45.0
aF56.0
aF72.0
aF67.0
aF67.0
aF62.0
aF73.0
aF66.0
aF71.0
aF65.0
aF55.0
aF72.0
aF45.0
aF68.0
aF70.0
aF55.0
aF64.0
aF58.0
aF63.0
aF65.0
aF74.0
aF65.0
aF74.0
aF87.0
aF74.0
aF70.0
aF87.0
aF66.0
aF75.0
aF70.0
aF70.0
aF38.0
aF42.0
aF68.0
aF72.0
aF69.0
aF74.0
aF74.0
aF63.0
aF46.0
aF72.0
aF72.0
aF66.0
aF69.0
aF73.0
aF72.0
aF57.0
aF67.0
aF71.0
aF63.0
aF74.0
aF71.0
aF71.0
aF74.0
aF73.0
aF70.0
aF71.0
aF53.0
aF71.0
aF65.0
aF71.0
aF69.0
aF52.0
aF69.0
aF77.0
aF61.0
aF100.0
aF73.0
aF73.0
aF65.0
aF66.0
aF72.0
aF66.0
aF75.0
aF72.0
aF72.0
aF73.0
aF58.0
aF73.0
aF71.0
aF59.0
aF74.0
aF63.0
aF69.0
aF63.0
aa(lp86
F49.0
aF46.0
aF51.0
aF52.0
aF49.0
aF57.0
aF52.0
aF69.0
aF47.0
aF49.0
aF52.0
aF68.0
aF53.0
aF78.0
aF80.0
aF50.0
aF60.0
aF68.0
aF80.0
aF79.0
aF47.0
aF82.0
aF54.0
aF81.0
aF51.0
aF81.0
aF73.0
aF53.0
aF63.0
aF83.0
aF50.0
aF75.0
aF83.0
aF75.0
aF79.0
aF84.0
aF54.0
aF81.0
aF58.0
aF72.0
aF56.0
aF53.0
aF72.0
aF79.0
aF83.0
aF48.0
aF54.0
aF45.0
aF60.0
aF78.0
aF57.0
aF81.0
aF54.0
aF54.0
aF78.0
aF46.0
aF51.0
aF54.0
aF79.0
aF49.0
aF52.0
aF51.0
aF74.0
aF50.0
aF50.0
aF78.0
aF56.0
aF50.0
aF50.0
aF81.0
aF51.0
aF50.0
aF53.0
aF69.0
aF51.0
aF79.0
aF52.0
aF49.0
aF43.0
aF81.0
aF61.0
aF77.0
aF73.0
aF100.0
aF75.0
aF45.0
aF81.0
aF50.0
aF80.0
aF55.0
aF54.0
aF51.0
aF55.0
aF75.0
aF55.0
aF51.0
aF75.0
aF54.0
aF78.0
aF52.0
aF73.0
aa(lp87
F57.0
aF52.0
aF58.0
aF57.0
aF57.0
aF61.0
aF60.0
aF59.0
aF52.0
aF54.0
aF58.0
aF60.0
aF59.0
aF68.0
aF72.0
aF55.0
aF54.0
aF63.0
aF72.0
aF71.0
aF52.0
aF68.0
aF59.0
aF71.0
aF56.0
aF70.0
aF60.0
aF57.0
aF53.0
aF72.0
aF57.0
aF62.0
aF72.0
aF63.0
aF67.0
aF71.0
aF59.0
aF68.0
aF64.0
aF74.0
aF59.0
aF61.0
aF72.0
aF68.0
aF75.0
aF56.0
aF58.0
aF42.0
aF52.0
aF68.0
aF61.0
aF73.0
aF58.0
aF59.0
aF65.0
aF44.0
aF56.0
aF59.0
aF71.0
aF54.0
aF57.0
aF57.0
aF63.0
aF52.0
aF55.0
aF67.0
aF61.0
aF56.0
aF56.0
aF75.0
aF57.0
aF55.0
aF58.0
aF60.0
aF56.0
aF67.0
aF56.0
aF54.0
aF46.0
aF71.0
aF65.0
aF66.0
aF73.0
aF75.0
aF100.0
aF55.0
aF71.0
aF56.0
aF69.0
aF60.0
aF61.0
aF57.0
aF58.0
aF65.0
aF57.0
aF54.0
aF63.0
aF59.0
aF67.0
aF59.0
aF65.0
aa(lp88
F91.0
aF81.0
aF87.0
aF88.0
aF88.0
aF75.0
aF85.0
aF29.0
aF83.0
aF86.0
aF86.0
aF31.0
aF84.0
aF42.0
aF40.0
aF85.0
aF27.0
aF31.0
aF47.0
aF43.0
aF86.0
aF35.0
aF83.0
aF41.0
aF86.0
aF39.0
aF31.0
aF83.0
aF25.0
aF44.0
aF86.0
aF30.0
aF37.0
aF34.0
aF38.0
aF37.0
aF83.0
aF39.0
aF76.0
aF64.0
aF83.0
aF83.0
aF61.0
aF40.0
aF49.0
aF87.0
aF83.0
aF27.0
aF20.0
aF40.0
aF76.0
aF41.0
aF85.0
aF83.0
aF36.0
aF46.0
aF85.0
aF81.0
aF41.0
aF86.0
aF85.0
aF84.0
aF33.0
aF80.0
aF89.0
aF37.0
aF80.0
aF87.0
aF89.0
aF51.0
aF88.0
aF84.0
aF83.0
aF32.0
aF82.0
aF40.0
aF80.0
aF87.0
aF46.0
aF41.0
aF75.0
aF34.0
aF65.0
aF45.0
aF55.0
aF100.0
aF36.0
aF89.0
aF40.0
aF83.0
aF84.0
aF89.0
aF79.0
aF32.0
aF81.0
aF87.0
aF33.0
aF86.0
aF37.0
aF84.0
aF40.0
aa(lp89
F39.0
aF38.0
aF42.0
aF42.0
aF41.0
aF51.0
aF43.0
aF77.0
aF38.0
aF42.0
aF42.0
aF74.0
aF44.0
aF82.0
aF80.0
aF41.0
aF71.0
aF82.0
aF80.0
aF75.0
aF38.0
aF87.0
aF44.0
aF83.0
aF41.0
aF86.0
aF82.0
aF43.0
aF72.0
aF81.0
aF42.0
aF86.0
aF84.0
aF84.0
aF84.0
aF86.0
aF44.0
aF85.0
aF54.0
aF66.0
aF46.0
aF43.0
aF69.0
aF81.0
aF77.0
aF39.0
aF45.0
aF43.0
aF71.0
aF85.0
aF48.0
aF88.0
aF45.0
aF47.0
aF84.0
aF48.0
aF41.0
aF45.0
aF77.0
aF41.0
aF42.0
aF43.0
aF79.0
aF40.0
aF42.0
aF83.0
aF46.0
aF40.0
aF41.0
aF77.0
aF42.0
aF42.0
aF44.0
aF77.0
aF42.0
aF80.0
aF43.0
aF40.0
aF48.0
aF83.0
aF52.0
aF83.0
aF66.0
aF81.0
aF71.0
aF36.0
aF100.0
aF41.0
aF83.0
aF46.0
aF45.0
aF42.0
aF46.0
aF87.0
aF47.0
aF41.0
aF79.0
aF45.0
aF84.0
aF43.0
aF77.0
aa(lp90
F92.0
aF87.0
aF92.0
aF94.0
aF93.0
aF83.0
aF92.0
aF31.0
aF89.0
aF92.0
aF94.0
aF32.0
aF94.0
aF45.0
aF44.0
aF92.0
aF25.0
aF33.0
aF53.0
aF48.0
aF92.0
aF38.0
aF89.0
aF44.0
aF93.0
aF44.0
aF32.0
aF90.0
aF24.0
aF49.0
aF93.0
aF32.0
aF41.0
aF35.0
aF42.0
aF41.0
aF90.0
aF43.0
aF81.0
aF71.0
aF91.0
aF88.0
aF66.0
aF43.0
aF55.0
aF93.0
aF90.0
aF29.0
aF22.0
aF45.0
aF84.0
aF46.0
aF94.0
aF92.0
aF39.0
aF47.0
aF92.0
aF86.0
aF45.0
aF92.0
aF93.0
aF92.0
aF34.0
aF88.0
aF95.0
aF40.0
aF86.0
aF95.0
aF95.0
aF54.0
aF95.0
aF92.0
aF90.0
aF32.0
aF89.0
aF44.0
aF89.0
aF92.0
aF48.0
aF45.0
aF82.0
aF39.0
aF72.0
aF50.0
aF56.0
aF89.0
aF41.0
aF100.0
aF45.0
aF90.0
aF89.0
aF95.0
aF86.0
aF35.0
aF88.0
aF95.0
aF37.0
aF92.0
aF40.0
aF91.0
aF43.0
aa(lp91
F43.0
aF40.0
aF45.0
aF46.0
aF43.0
aF53.0
aF45.0
aF75.0
aF42.0
aF43.0
aF46.0
aF72.0
aF48.0
aF78.0
aF81.0
aF42.0
aF67.0
aF73.0
aF80.0
aF80.0
aF41.0
aF86.0
aF47.0
aF84.0
aF43.0
aF85.0
aF80.0
aF48.0
aF69.0
aF86.0
aF44.0
aF80.0
aF82.0
aF81.0
aF83.0
aF86.0
aF47.0
aF82.0
aF54.0
aF66.0
aF48.0
aF46.0
aF67.0
aF84.0
aF79.0
aF42.0
aF47.0
aF48.0
aF67.0
aF85.0
aF48.0
aF83.0
aF46.0
aF48.0
aF84.0
aF45.0
aF45.0
aF47.0
aF78.0
aF41.0
aF46.0
aF46.0
aF78.0
aF42.0
aF44.0
aF86.0
aF49.0
aF43.0
aF44.0
aF81.0
aF44.0
aF43.0
aF46.0
aF73.0
aF44.0
aF83.0
aF46.0
aF43.0
aF46.0
aF84.0
aF56.0
aF76.0
aF66.0
aF80.0
aF69.0
aF40.0
aF83.0
aF45.0
aF100.0
aF51.0
aF47.0
aF43.0
aF47.0
aF80.0
aF48.0
aF43.0
aF78.0
aF47.0
aF86.0
aF45.0
aF81.0
aa(lp92
F88.0
aF83.0
aF90.0
aF90.0
aF88.0
aF85.0
aF90.0
aF35.0
aF86.0
aF88.0
aF90.0
aF37.0
aF92.0
aF50.0
aF49.0
aF89.0
aF28.0
aF38.0
aF57.0
aF53.0
aF86.0
aF44.0
aF91.0
aF49.0
aF90.0
aF49.0
aF37.0
aF91.0
aF28.0
aF54.0
aF89.0
aF37.0
aF46.0
aF40.0
aF46.0
aF46.0
aF91.0
aF48.0
aF83.0
aF74.0
aF92.0
aF89.0
aF69.0
aF48.0
aF58.0
aF88.0
aF90.0
aF32.0
aF26.0
aF49.0
aF84.0
aF51.0
aF91.0
aF92.0
aF45.0
aF48.0
aF90.0
aF86.0
aF49.0
aF87.0
aF91.0
aF87.0
aF39.0
aF85.0
aF91.0
aF45.0
aF86.0
aF89.0
aF90.0
aF58.0
aF89.0
aF89.0
aF88.0
aF37.0
aF88.0
aF49.0
aF89.0
aF88.0
aF51.0
aF49.0
aF86.0
aF43.0
aF75.0
aF55.0
aF60.0
aF83.0
aF46.0
aF90.0
aF51.0
aF100.0
aF89.0
aF89.0
aF84.0
aF40.0
aF89.0
aF89.0
aF41.0
aF90.0
aF46.0
aF89.0
aF48.0
aa(lp93
F87.0
aF82.0
aF89.0
aF85.0
aF89.0
aF83.0
aF88.0
aF35.0
aF85.0
aF86.0
aF88.0
aF35.0
aF90.0
aF48.0
aF49.0
aF86.0
aF30.0
aF37.0
aF53.0
aF51.0
aF86.0
aF42.0
aF88.0
aF47.0
aF88.0
aF46.0
aF37.0
aF87.0
aF29.0
aF52.0
aF87.0
aF37.0
aF44.0
aF39.0
aF45.0
aF45.0
aF88.0
aF46.0
aF83.0
aF71.0
aF89.0
aF89.0
aF68.0
aF46.0
aF56.0
aF88.0
aF87.0
aF29.0
aF25.0
aF46.0
aF81.0
aF49.0
aF89.0
aF88.0
aF42.0
aF46.0
aF87.0
aF83.0
aF48.0
aF86.0
aF88.0
aF85.0
aF39.0
aF83.0
aF89.0
aF45.0
aF84.0
aF88.0
aF89.0
aF57.0
aF88.0
aF86.0
aF91.0
aF36.0
aF85.0
aF48.0
aF85.0
aF86.0
aF43.0
aF48.0
aF83.0
aF40.0
aF72.0
aF54.0
aF61.0
aF84.0
aF45.0
aF89.0
aF47.0
aF89.0
aF100.0
aF88.0
aF80.0
aF38.0
aF85.0
aF87.0
aF40.0
aF88.0
aF45.0
aF89.0
aF46.0
aa(lp94
F91.0
aF87.0
aF92.0
aF94.0
aF93.0
aF81.0
aF94.0
aF32.0
aF89.0
aF92.0
aF91.0
aF32.0
aF90.0
aF46.0
aF44.0
aF93.0
aF23.0
aF34.0
aF52.0
aF48.0
aF89.0
aF38.0
aF89.0
aF43.0
aF92.0
aF43.0
aF32.0
aF90.0
aF24.0
aF48.0
aF91.0
aF33.0
aF42.0
aF34.0
aF41.0
aF41.0
aF91.0
aF43.0
aF82.0
aF72.0
aF91.0
aF89.0
aF67.0
aF43.0
aF55.0
aF92.0
aF88.0
aF29.0
aF22.0
aF45.0
aF84.0
aF47.0
aF93.0
aF91.0
aF40.0
aF48.0
aF92.0
aF88.0
aF45.0
aF93.0
aF92.0
aF90.0
aF35.0
aF89.0
aF94.0
aF40.0
aF87.0
aF94.0
aF94.0
aF53.0
aF98.0
aF91.0
aF88.0
aF32.0
aF89.0
aF43.0
aF89.0
aF92.0
aF48.0
aF46.0
aF81.0
aF39.0
aF72.0
aF51.0
aF57.0
aF89.0
aF42.0
aF95.0
aF43.0
aF89.0
aF88.0
aF100.0
aF86.0
aF36.0
aF88.0
aF94.0
aF37.0
aF92.0
aF40.0
aF90.0
aF41.0
aa(lp95
F85.0
aF80.0
aF83.0
aF85.0
aF82.0
aF78.0
aF84.0
aF35.0
aF81.0
aF84.0
aF86.0
aF36.0
aF84.0
aF51.0
aF48.0
aF83.0
aF30.0
aF38.0
aF56.0
aF51.0
aF81.0
aF44.0
aF84.0
aF48.0
aF84.0
aF47.0
aF37.0
aF81.0
aF29.0
aF53.0
aF83.0
aF38.0
aF48.0
aF40.0
aF46.0
aF47.0
aF83.0
aF47.0
aF78.0
aF72.0
aF84.0
aF80.0
aF64.0
aF47.0
aF57.0
aF83.0
aF82.0
aF30.0
aF27.0
aF47.0
aF79.0
aF51.0
aF87.0
aF86.0
aF45.0
aF48.0
aF86.0
aF83.0
aF48.0
aF83.0
aF87.0
aF86.0
aF40.0
aF81.0
aF86.0
aF44.0
aF84.0
aF84.0
aF85.0
aF59.0
aF86.0
aF82.0
aF84.0
aF37.0
aF81.0
aF48.0
aF83.0
aF83.0
aF46.0
aF50.0
aF79.0
aF43.0
aF73.0
aF55.0
aF58.0
aF79.0
aF46.0
aF86.0
aF47.0
aF84.0
aF80.0
aF86.0
aF100.0
aF42.0
aF85.0
aF86.0
aF42.0
aF83.0
aF45.0
aF83.0
aF46.0
aa(lp96
F34.0
aF32.0
aF36.0
aF37.0
aF35.0
aF45.0
aF38.0
aF79.0
aF32.0
aF36.0
aF37.0
aF78.0
aF39.0
aF80.0
aF75.0
aF35.0
aF76.0
aF81.0
aF74.0
aF73.0
aF34.0
aF85.0
aF39.0
aF78.0
aF35.0
aF82.0
aF81.0
aF38.0
aF79.0
aF77.0
aF36.0
aF90.0
aF84.0
aF81.0
aF81.0
aF83.0
aF38.0
aF85.0
aF48.0
aF58.0
aF40.0
aF37.0
aF61.0
aF80.0
aF70.0
aF33.0
aF38.0
aF42.0
aF77.0
aF80.0
aF42.0
aF82.0
aF40.0
aF41.0
aF83.0
aF49.0
aF35.0
aF40.0
aF72.0
aF35.0
aF36.0
aF37.0
aF78.0
aF35.0
aF35.0
aF81.0
aF41.0
aF35.0
aF36.0
aF70.0
aF37.0
aF36.0
aF38.0
aF77.0
aF36.0
aF74.0
aF37.0
aF36.0
aF52.0
aF79.0
aF47.0
aF81.0
aF58.0
aF75.0
aF65.0
aF32.0
aF87.0
aF35.0
aF80.0
aF40.0
aF38.0
aF36.0
aF42.0
aF100.0
aF41.0
aF34.0
aF77.0
aF38.0
aF81.0
aF37.0
aF76.0
aa(lp97
F86.0
aF81.0
aF87.0
aF86.0
aF85.0
aF80.0
aF88.0
aF37.0
aF84.0
aF87.0
aF90.0
aF35.0
aF87.0
aF50.0
aF48.0
aF86.0
aF29.0
aF38.0
aF56.0
aF53.0
aF85.0
aF45.0
aF89.0
aF49.0
aF89.0
aF50.0
aF38.0
aF85.0
aF29.0
aF54.0
aF87.0
aF39.0
aF47.0
aF40.0
aF46.0
aF47.0
aF87.0
aF48.0
aF80.0
aF74.0
aF90.0
aF85.0
aF66.0
aF46.0
aF57.0
aF86.0
aF88.0
aF31.0
aF26.0
aF47.0
aF85.0
aF51.0
aF92.0
aF91.0
aF44.0
aF48.0
aF88.0
aF86.0
aF48.0
aF87.0
aF89.0
aF87.0
aF39.0
aF83.0
aF89.0
aF45.0
aF83.0
aF86.0
aF88.0
aF57.0
aF88.0
aF86.0
aF86.0
aF38.0
aF86.0
aF49.0
aF84.0
aF88.0
aF43.0
aF50.0
aF80.0
aF43.0
aF73.0
aF55.0
aF57.0
aF81.0
aF47.0
aF88.0
aF48.0
aF89.0
aF85.0
aF88.0
aF85.0
aF41.0
aF100.0
aF89.0
aF43.0
aF88.0
aF45.0
aF87.0
aF48.0
aa(lp98
F90.0
aF86.0
aF91.0
aF92.0
aF91.0
aF81.0
aF91.0
aF31.0
aF89.0
aF91.0
aF92.0
aF30.0
aF90.0
aF44.0
aF43.0
aF90.0
aF24.0
aF32.0
aF52.0
aF48.0
aF91.0
aF38.0
aF87.0
aF43.0
aF93.0
aF43.0
aF33.0
aF88.0
aF24.0
aF49.0
aF92.0
aF32.0
aF41.0
aF35.0
aF41.0
aF41.0
aF89.0
aF42.0
aF80.0
aF70.0
aF90.0
aF86.0
aF65.0
aF41.0
aF54.0
aF92.0
aF89.0
aF28.0
aF21.0
aF43.0
aF83.0
aF46.0
aF94.0
aF91.0
aF37.0
aF47.0
aF92.0
aF86.0
aF44.0
aF93.0
aF93.0
aF90.0
aF34.0
aF88.0
aF94.0
aF39.0
aF86.0
aF92.0
aF93.0
aF53.0
aF93.0
aF90.0
aF90.0
aF31.0
aF88.0
aF42.0
aF89.0
aF92.0
aF46.0
aF44.0
aF81.0
aF37.0
aF71.0
aF51.0
aF54.0
aF87.0
aF41.0
aF95.0
aF43.0
aF89.0
aF87.0
aF94.0
aF86.0
aF34.0
aF89.0
aF100.0
aF36.0
aF92.0
aF40.0
aF90.0
aF41.0
aa(lp99
F35.0
aF33.0
aF39.0
aF38.0
aF36.0
aF44.0
aF39.0
aF76.0
aF37.0
aF36.0
aF39.0
aF70.0
aF40.0
aF77.0
aF75.0
aF36.0
aF68.0
aF75.0
aF74.0
aF72.0
aF35.0
aF83.0
aF42.0
aF81.0
aF36.0
aF81.0
aF77.0
aF38.0
aF69.0
aF77.0
aF38.0
aF79.0
aF83.0
aF76.0
aF83.0
aF82.0
aF39.0
aF77.0
aF48.0
aF61.0
aF41.0
aF38.0
aF60.0
aF79.0
aF73.0
aF36.0
aF40.0
aF43.0
aF69.0
aF79.0
aF42.0
aF78.0
aF40.0
aF41.0
aF77.0
aF46.0
aF37.0
aF42.0
aF73.0
aF36.0
aF37.0
aF38.0
aF78.0
aF35.0
aF36.0
aF78.0
aF43.0
aF36.0
aF37.0
aF72.0
aF37.0
aF38.0
aF40.0
aF71.0
aF38.0
aF75.0
aF40.0
aF37.0
aF41.0
aF79.0
aF47.0
aF76.0
aF59.0
aF75.0
aF63.0
aF33.0
aF79.0
aF37.0
aF78.0
aF41.0
aF40.0
aF37.0
aF42.0
aF77.0
aF43.0
aF36.0
aF100.0
aF40.0
aF78.0
aF38.0
aF74.0
aa(lp100
F90.0
aF86.0
aF90.0
aF91.0
aF89.0
aF78.0
aF90.0
aF34.0
aF88.0
aF91.0
aF91.0
aF34.0
aF89.0
aF48.0
aF48.0
aF89.0
aF26.0
aF36.0
aF55.0
aF51.0
aF89.0
aF42.0
aF88.0
aF48.0
aF93.0
aF47.0
aF37.0
aF88.0
aF26.0
aF53.0
aF91.0
aF36.0
aF45.0
aF39.0
aF45.0
aF45.0
aF89.0
aF46.0
aF80.0
aF73.0
aF89.0
aF86.0
aF68.0
aF46.0
aF59.0
aF90.0
aF86.0
aF30.0
aF23.0
aF47.0
aF84.0
aF50.0
aF93.0
aF90.0
aF41.0
aF47.0
aF91.0
aF86.0
aF47.0
aF90.0
aF91.0
aF88.0
aF37.0
aF88.0
aF93.0
aF44.0
aF85.0
aF89.0
aF92.0
aF57.0
aF93.0
aF89.0
aF89.0
aF35.0
aF88.0
aF48.0
aF86.0
aF92.0
aF48.0
aF48.0
aF81.0
aF40.0
aF74.0
aF54.0
aF59.0
aF86.0
aF45.0
aF92.0
aF47.0
aF90.0
aF88.0
aF92.0
aF83.0
aF38.0
aF88.0
aF92.0
aF40.0
aF100.0
aF44.0
aF90.0
aF45.0
aa(lp101
F40.0
aF37.0
aF40.0
aF41.0
aF39.0
aF49.0
aF42.0
aF76.0
aF38.0
aF40.0
aF42.0
aF75.0
aF44.0
aF79.0
aF81.0
aF39.0
aF71.0
aF76.0
aF79.0
aF77.0
aF38.0
aF85.0
aF44.0
aF83.0
aF40.0
aF84.0
aF83.0
aF43.0
aF71.0
aF83.0
aF41.0
aF84.0
aF82.0
aF84.0
aF83.0
aF89.0
aF43.0
aF84.0
aF53.0
aF63.0
aF45.0
aF43.0
aF67.0
aF84.0
aF77.0
aF38.0
aF44.0
aF41.0
aF69.0
aF84.0
aF45.0
aF83.0
aF43.0
aF44.0
aF83.0
aF47.0
aF41.0
aF45.0
aF76.0
aF38.0
aF41.0
aF42.0
aF79.0
aF39.0
aF41.0
aF99.0
aF46.0
aF39.0
aF40.0
aF79.0
aF40.0
aF41.0
aF44.0
aF75.0
aF42.0
aF81.0
aF42.0
aF40.0
aF37.0
aF83.0
aF54.0
aF77.0
aF63.0
aF78.0
aF67.0
aF37.0
aF84.0
aF40.0
aF86.0
aF46.0
aF45.0
aF40.0
aF45.0
aF81.0
aF45.0
aF40.0
aF78.0
aF44.0
aF100.0
aF42.0
aF80.0
aa(lp102
F89.0
aF85.0
aF92.0
aF89.0
aF89.0
aF83.0
aF91.0
aF33.0
aF88.0
aF89.0
aF91.0
aF33.0
aF90.0
aF46.0
aF45.0
aF88.0
aF28.0
aF36.0
aF53.0
aF49.0
aF87.0
aF40.0
aF86.0
aF45.0
aF90.0
aF45.0
aF35.0
aF88.0
aF27.0
aF50.0
aF94.0
aF36.0
aF43.0
aF37.0
aF42.0
aF43.0
aF87.0
aF45.0
aF80.0
aF70.0
aF89.0
aF88.0
aF64.0
aF43.0
aF54.0
aF90.0
aF90.0
aF29.0
aF25.0
aF44.0
aF85.0
aF46.0
aF92.0
aF90.0
aF40.0
aF47.0
aF90.0
aF84.0
aF46.0
aF89.0
aF90.0
aF89.0
aF37.0
aF86.0
aF91.0
aF42.0
aF84.0
aF89.0
aF91.0
aF54.0
aF90.0
aF89.0
aF89.0
aF35.0
aF89.0
aF45.0
aF85.0
aF89.0
aF48.0
aF46.0
aF80.0
aF39.0
aF69.0
aF52.0
aF59.0
aF84.0
aF43.0
aF91.0
aF45.0
aF89.0
aF89.0
aF90.0
aF83.0
aF37.0
aF87.0
aF90.0
aF38.0
aF90.0
aF42.0
aF100.0
aF44.0
aa(lp103
F42.0
aF36.0
aF43.0
aF43.0
aF41.0
aF51.0
aF42.0
aF69.0
aF40.0
aF42.0
aF44.0
aF69.0
aF46.0
aF73.0
aF79.0
aF40.0
aF65.0
aF72.0
aF74.0
aF77.0
aF41.0
aF79.0
aF47.0
aF79.0
aF42.0
aF80.0
aF74.0
aF46.0
aF66.0
aF80.0
aF43.0
aF78.0
aF74.0
aF74.0
aF78.0
aF78.0
aF46.0
aF76.0
aF52.0
aF61.0
aF47.0
aF44.0
aF64.0
aF77.0
aF77.0
aF41.0
aF46.0
aF44.0
aF66.0
aF80.0
aF46.0
aF78.0
aF44.0
aF46.0
aF77.0
aF44.0
aF42.0
aF47.0
aF74.0
aF40.0
aF43.0
aF45.0
aF73.0
aF40.0
aF43.0
aF79.0
aF48.0
aF42.0
aF42.0
aF77.0
aF41.0
aF42.0
aF47.0
aF69.0
aF43.0
aF84.0
aF43.0
aF42.0
aF43.0
aF80.0
aF55.0
aF68.0
aF63.0
aF73.0
aF65.0
aF40.0
aF77.0
aF43.0
aF81.0
aF48.0
aF46.0
aF41.0
aF46.0
aF76.0
aF48.0
aF41.0
aF74.0
aF45.0
aF80.0
aF44.0
aF100.0
aasS'people'
p104
(lp105
S'L000174'
p106
aS'R000361'
p107
aS'W000779'
p108
aS'L000261'
p109
aS'M001176'
p110
aS'M001170'
p111
aS'S001181'
p112
aS'C000560'
p113
aS'B000711'
p114
aS'A000069'
p115
aS'B000468'
p116
aS'V000127'
p117
aS'K000367'
p118
aS'G000359'
p119
aS'W000437'
p120
aS'B001277'
p121
aS'P000603'
p122
aS'R000595'
p123
aS'L000504'
p124
aS'B000575'
p125
aS'H000206'
p126
aS'C001056'
p127
aS'H001049'
p128
aS'I000055'
p129
aS'S000148'
p130
aS'C000542'
p131
aS'R000584'
p132
aS'S000770'
p133
aS'L000577'
p134
aS'J000291'
p135
aS'M001111'
p136
aS'J000293'
p137
aS'K000352'
p138
aS'C000880'
p139
aS'C000286'
p140
aS'M000355'
p141
aS'C001070'
p142
aS'C001071'
p143
aS'M001183'
p144
aS'B001268'
p145
aS'B001267'
p146
aS'B001265'
p147
aS'S000663'
p148
aS'S000320'
p149
aS'C000567'
p150
aS'U000039'
p151
aS'U000038'
p152
aS'K000360'
p153
aS'D000595'
p154
aS'G000386'
p155
aS'L000304'
p156
aS'P000449'
p157
aS'C001088'
p158
aS'C000174'
p159
aS'S001141'
p160
aS'H001041'
p161
aS'F000062'
p162
aS'L000550'
p163
aS'H001016'
p164
aS'L000123'
p165
aS'J000177'
p166
aS'C000705'
p167
aS'I000024'
p168
aS'I000025'
p169
aS'G000555'
p170
aS'E000285'
p171
aS'P000590'
p172
aS'B000944'
p173
aS'C000141'
p174
aS'H001061'
p175
aS'R000122'
p176
aS'M000639'
p177
aS'B000243'
p178
aS'H000338'
p179
aS'K000148'
p180
aS'R000307'
p181
aS'K000305'
p182
aS'M000702'
p183
aS'E000194'
p184
aS'B001236'
p185
aS'N000180'
p186
aS'M000303'
p187
aS'C001035'
p188
aS'A000360'
p189
aS'M001153'
p190
aS'S000033'
p191
aS'A000368'
p192
aS'F000457'
p193
aS'T000250'
p194
aS'N000032'
p195
aS'T000464'
p196
aS'W000802'
p197
aS'W000803'
p198
aS'T000461'
p199
aS'W000805'
p200
aS'D000563'
p201
aS'B001135'
p202
aS'R000146'
p203
aS'B001261'
p204
aS'C000127'
p205
aS'M000934'
p206
as.